
ctarget:     file format elf64-x86-64


Disassembly of section .init:

0000000000400c48 <_init>:
  400c48:	48 83 ec 08          	sub    $0x8,%rsp
  400c4c:	48 8b 05 a5 33 20 00 	mov    0x2033a5(%rip),%rax        # 603ff8 <__gmon_start__>
  400c53:	48 85 c0             	test   %rax,%rax
  400c56:	74 05                	je     400c5d <_init+0x15>
  400c58:	e8 43 02 00 00       	callq  400ea0 <__gmon_start__@plt>
  400c5d:	48 83 c4 08          	add    $0x8,%rsp
  400c61:	c3                   	retq   

Disassembly of section .plt:

0000000000400c70 <.plt>:
  400c70:	ff 35 92 33 20 00    	pushq  0x203392(%rip)        # 604008 <_GLOBAL_OFFSET_TABLE_+0x8>
  400c76:	ff 25 94 33 20 00    	jmpq   *0x203394(%rip)        # 604010 <_GLOBAL_OFFSET_TABLE_+0x10>
  400c7c:	0f 1f 40 00          	nopl   0x0(%rax)

0000000000400c80 <strcasecmp@plt>:
  400c80:	ff 25 92 33 20 00    	jmpq   *0x203392(%rip)        # 604018 <strcasecmp@GLIBC_2.2.5>
  400c86:	68 00 00 00 00       	pushq  $0x0
  400c8b:	e9 e0 ff ff ff       	jmpq   400c70 <.plt>

0000000000400c90 <__errno_location@plt>:
  400c90:	ff 25 8a 33 20 00    	jmpq   *0x20338a(%rip)        # 604020 <__errno_location@GLIBC_2.2.5>
  400c96:	68 01 00 00 00       	pushq  $0x1
  400c9b:	e9 d0 ff ff ff       	jmpq   400c70 <.plt>

0000000000400ca0 <srandom@plt>:
  400ca0:	ff 25 82 33 20 00    	jmpq   *0x203382(%rip)        # 604028 <srandom@GLIBC_2.2.5>
  400ca6:	68 02 00 00 00       	pushq  $0x2
  400cab:	e9 c0 ff ff ff       	jmpq   400c70 <.plt>

0000000000400cb0 <strncmp@plt>:
  400cb0:	ff 25 7a 33 20 00    	jmpq   *0x20337a(%rip)        # 604030 <strncmp@GLIBC_2.2.5>
  400cb6:	68 03 00 00 00       	pushq  $0x3
  400cbb:	e9 b0 ff ff ff       	jmpq   400c70 <.plt>

0000000000400cc0 <strcpy@plt>:
  400cc0:	ff 25 72 33 20 00    	jmpq   *0x203372(%rip)        # 604038 <strcpy@GLIBC_2.2.5>
  400cc6:	68 04 00 00 00       	pushq  $0x4
  400ccb:	e9 a0 ff ff ff       	jmpq   400c70 <.plt>

0000000000400cd0 <puts@plt>:
  400cd0:	ff 25 6a 33 20 00    	jmpq   *0x20336a(%rip)        # 604040 <puts@GLIBC_2.2.5>
  400cd6:	68 05 00 00 00       	pushq  $0x5
  400cdb:	e9 90 ff ff ff       	jmpq   400c70 <.plt>

0000000000400ce0 <write@plt>:
  400ce0:	ff 25 62 33 20 00    	jmpq   *0x203362(%rip)        # 604048 <write@GLIBC_2.2.5>
  400ce6:	68 06 00 00 00       	pushq  $0x6
  400ceb:	e9 80 ff ff ff       	jmpq   400c70 <.plt>

0000000000400cf0 <__stack_chk_fail@plt>:
  400cf0:	ff 25 5a 33 20 00    	jmpq   *0x20335a(%rip)        # 604050 <__stack_chk_fail@GLIBC_2.4>
  400cf6:	68 07 00 00 00       	pushq  $0x7
  400cfb:	e9 70 ff ff ff       	jmpq   400c70 <.plt>

0000000000400d00 <mmap@plt>:
  400d00:	ff 25 52 33 20 00    	jmpq   *0x203352(%rip)        # 604058 <mmap@GLIBC_2.2.5>
  400d06:	68 08 00 00 00       	pushq  $0x8
  400d0b:	e9 60 ff ff ff       	jmpq   400c70 <.plt>

0000000000400d10 <memset@plt>:
  400d10:	ff 25 4a 33 20 00    	jmpq   *0x20334a(%rip)        # 604060 <memset@GLIBC_2.2.5>
  400d16:	68 09 00 00 00       	pushq  $0x9
  400d1b:	e9 50 ff ff ff       	jmpq   400c70 <.plt>

0000000000400d20 <alarm@plt>:
  400d20:	ff 25 42 33 20 00    	jmpq   *0x203342(%rip)        # 604068 <alarm@GLIBC_2.2.5>
  400d26:	68 0a 00 00 00       	pushq  $0xa
  400d2b:	e9 40 ff ff ff       	jmpq   400c70 <.plt>

0000000000400d30 <close@plt>:
  400d30:	ff 25 3a 33 20 00    	jmpq   *0x20333a(%rip)        # 604070 <close@GLIBC_2.2.5>
  400d36:	68 0b 00 00 00       	pushq  $0xb
  400d3b:	e9 30 ff ff ff       	jmpq   400c70 <.plt>

0000000000400d40 <read@plt>:
  400d40:	ff 25 32 33 20 00    	jmpq   *0x203332(%rip)        # 604078 <read@GLIBC_2.2.5>
  400d46:	68 0c 00 00 00       	pushq  $0xc
  400d4b:	e9 20 ff ff ff       	jmpq   400c70 <.plt>

0000000000400d50 <__libc_start_main@plt>:
  400d50:	ff 25 2a 33 20 00    	jmpq   *0x20332a(%rip)        # 604080 <__libc_start_main@GLIBC_2.2.5>
  400d56:	68 0d 00 00 00       	pushq  $0xd
  400d5b:	e9 10 ff ff ff       	jmpq   400c70 <.plt>

0000000000400d60 <signal@plt>:
  400d60:	ff 25 22 33 20 00    	jmpq   *0x203322(%rip)        # 604088 <signal@GLIBC_2.2.5>
  400d66:	68 0e 00 00 00       	pushq  $0xe
  400d6b:	e9 00 ff ff ff       	jmpq   400c70 <.plt>

0000000000400d70 <gethostbyname@plt>:
  400d70:	ff 25 1a 33 20 00    	jmpq   *0x20331a(%rip)        # 604090 <gethostbyname@GLIBC_2.2.5>
  400d76:	68 0f 00 00 00       	pushq  $0xf
  400d7b:	e9 f0 fe ff ff       	jmpq   400c70 <.plt>

0000000000400d80 <__memmove_chk@plt>:
  400d80:	ff 25 12 33 20 00    	jmpq   *0x203312(%rip)        # 604098 <__memmove_chk@GLIBC_2.3.4>
  400d86:	68 10 00 00 00       	pushq  $0x10
  400d8b:	e9 e0 fe ff ff       	jmpq   400c70 <.plt>

0000000000400d90 <strtol@plt>:
  400d90:	ff 25 0a 33 20 00    	jmpq   *0x20330a(%rip)        # 6040a0 <strtol@GLIBC_2.2.5>
  400d96:	68 11 00 00 00       	pushq  $0x11
  400d9b:	e9 d0 fe ff ff       	jmpq   400c70 <.plt>

0000000000400da0 <memcpy@plt>:
  400da0:	ff 25 02 33 20 00    	jmpq   *0x203302(%rip)        # 6040a8 <memcpy@GLIBC_2.14>
  400da6:	68 12 00 00 00       	pushq  $0x12
  400dab:	e9 c0 fe ff ff       	jmpq   400c70 <.plt>

0000000000400db0 <time@plt>:
  400db0:	ff 25 fa 32 20 00    	jmpq   *0x2032fa(%rip)        # 6040b0 <time@GLIBC_2.2.5>
  400db6:	68 13 00 00 00       	pushq  $0x13
  400dbb:	e9 b0 fe ff ff       	jmpq   400c70 <.plt>

0000000000400dc0 <random@plt>:
  400dc0:	ff 25 f2 32 20 00    	jmpq   *0x2032f2(%rip)        # 6040b8 <random@GLIBC_2.2.5>
  400dc6:	68 14 00 00 00       	pushq  $0x14
  400dcb:	e9 a0 fe ff ff       	jmpq   400c70 <.plt>

0000000000400dd0 <_IO_getc@plt>:
  400dd0:	ff 25 ea 32 20 00    	jmpq   *0x2032ea(%rip)        # 6040c0 <_IO_getc@GLIBC_2.2.5>
  400dd6:	68 15 00 00 00       	pushq  $0x15
  400ddb:	e9 90 fe ff ff       	jmpq   400c70 <.plt>

0000000000400de0 <__isoc99_sscanf@plt>:
  400de0:	ff 25 e2 32 20 00    	jmpq   *0x2032e2(%rip)        # 6040c8 <__isoc99_sscanf@GLIBC_2.7>
  400de6:	68 16 00 00 00       	pushq  $0x16
  400deb:	e9 80 fe ff ff       	jmpq   400c70 <.plt>

0000000000400df0 <munmap@plt>:
  400df0:	ff 25 da 32 20 00    	jmpq   *0x2032da(%rip)        # 6040d0 <munmap@GLIBC_2.2.5>
  400df6:	68 17 00 00 00       	pushq  $0x17
  400dfb:	e9 70 fe ff ff       	jmpq   400c70 <.plt>

0000000000400e00 <__printf_chk@plt>:
  400e00:	ff 25 d2 32 20 00    	jmpq   *0x2032d2(%rip)        # 6040d8 <__printf_chk@GLIBC_2.3.4>
  400e06:	68 18 00 00 00       	pushq  $0x18
  400e0b:	e9 60 fe ff ff       	jmpq   400c70 <.plt>

0000000000400e10 <fopen@plt>:
  400e10:	ff 25 ca 32 20 00    	jmpq   *0x2032ca(%rip)        # 6040e0 <fopen@GLIBC_2.2.5>
  400e16:	68 19 00 00 00       	pushq  $0x19
  400e1b:	e9 50 fe ff ff       	jmpq   400c70 <.plt>

0000000000400e20 <getopt@plt>:
  400e20:	ff 25 c2 32 20 00    	jmpq   *0x2032c2(%rip)        # 6040e8 <getopt@GLIBC_2.2.5>
  400e26:	68 1a 00 00 00       	pushq  $0x1a
  400e2b:	e9 40 fe ff ff       	jmpq   400c70 <.plt>

0000000000400e30 <strtoul@plt>:
  400e30:	ff 25 ba 32 20 00    	jmpq   *0x2032ba(%rip)        # 6040f0 <strtoul@GLIBC_2.2.5>
  400e36:	68 1b 00 00 00       	pushq  $0x1b
  400e3b:	e9 30 fe ff ff       	jmpq   400c70 <.plt>

0000000000400e40 <gethostname@plt>:
  400e40:	ff 25 b2 32 20 00    	jmpq   *0x2032b2(%rip)        # 6040f8 <gethostname@GLIBC_2.2.5>
  400e46:	68 1c 00 00 00       	pushq  $0x1c
  400e4b:	e9 20 fe ff ff       	jmpq   400c70 <.plt>

0000000000400e50 <exit@plt>:
  400e50:	ff 25 aa 32 20 00    	jmpq   *0x2032aa(%rip)        # 604100 <exit@GLIBC_2.2.5>
  400e56:	68 1d 00 00 00       	pushq  $0x1d
  400e5b:	e9 10 fe ff ff       	jmpq   400c70 <.plt>

0000000000400e60 <connect@plt>:
  400e60:	ff 25 a2 32 20 00    	jmpq   *0x2032a2(%rip)        # 604108 <connect@GLIBC_2.2.5>
  400e66:	68 1e 00 00 00       	pushq  $0x1e
  400e6b:	e9 00 fe ff ff       	jmpq   400c70 <.plt>

0000000000400e70 <__fprintf_chk@plt>:
  400e70:	ff 25 9a 32 20 00    	jmpq   *0x20329a(%rip)        # 604110 <__fprintf_chk@GLIBC_2.3.4>
  400e76:	68 1f 00 00 00       	pushq  $0x1f
  400e7b:	e9 f0 fd ff ff       	jmpq   400c70 <.plt>

0000000000400e80 <__sprintf_chk@plt>:
  400e80:	ff 25 92 32 20 00    	jmpq   *0x203292(%rip)        # 604118 <__sprintf_chk@GLIBC_2.3.4>
  400e86:	68 20 00 00 00       	pushq  $0x20
  400e8b:	e9 e0 fd ff ff       	jmpq   400c70 <.plt>

0000000000400e90 <socket@plt>:
  400e90:	ff 25 8a 32 20 00    	jmpq   *0x20328a(%rip)        # 604120 <socket@GLIBC_2.2.5>
  400e96:	68 21 00 00 00       	pushq  $0x21
  400e9b:	e9 d0 fd ff ff       	jmpq   400c70 <.plt>

Disassembly of section .plt.got:

0000000000400ea0 <__gmon_start__@plt>:
  400ea0:	ff 25 52 31 20 00    	jmpq   *0x203152(%rip)        # 603ff8 <__gmon_start__>
  400ea6:	66 90                	xchg   %ax,%ax

Disassembly of section .text:

0000000000400eb0 <_start>:
  400eb0:	31 ed                	xor    %ebp,%ebp
  400eb2:	49 89 d1             	mov    %rdx,%r9
  400eb5:	5e                   	pop    %rsi
  400eb6:	48 89 e2             	mov    %rsp,%rdx
  400eb9:	48 83 e4 f0          	and    $0xfffffffffffffff0,%rsp
  400ebd:	50                   	push   %rax
  400ebe:	54                   	push   %rsp
  400ebf:	49 c7 c0 60 2e 40 00 	mov    $0x402e60,%r8
  400ec6:	48 c7 c1 f0 2d 40 00 	mov    $0x402df0,%rcx
  400ecd:	48 c7 c7 b5 11 40 00 	mov    $0x4011b5,%rdi
  400ed4:	e8 77 fe ff ff       	callq  400d50 <__libc_start_main@plt>
  400ed9:	f4                   	hlt    
  400eda:	66 0f 1f 44 00 00    	nopw   0x0(%rax,%rax,1)

0000000000400ee0 <deregister_tm_clones>:
  400ee0:	b8 b7 44 60 00       	mov    $0x6044b7,%eax
  400ee5:	55                   	push   %rbp
  400ee6:	48 2d b0 44 60 00    	sub    $0x6044b0,%rax
  400eec:	48 83 f8 0e          	cmp    $0xe,%rax
  400ef0:	48 89 e5             	mov    %rsp,%rbp
  400ef3:	76 1b                	jbe    400f10 <deregister_tm_clones+0x30>
  400ef5:	b8 00 00 00 00       	mov    $0x0,%eax
  400efa:	48 85 c0             	test   %rax,%rax
  400efd:	74 11                	je     400f10 <deregister_tm_clones+0x30>
  400eff:	5d                   	pop    %rbp
  400f00:	bf b0 44 60 00       	mov    $0x6044b0,%edi
  400f05:	ff e0                	jmpq   *%rax
  400f07:	66 0f 1f 84 00 00 00 	nopw   0x0(%rax,%rax,1)
  400f0e:	00 00 
  400f10:	5d                   	pop    %rbp
  400f11:	c3                   	retq   
  400f12:	0f 1f 40 00          	nopl   0x0(%rax)
  400f16:	66 2e 0f 1f 84 00 00 	nopw   %cs:0x0(%rax,%rax,1)
  400f1d:	00 00 00 

0000000000400f20 <register_tm_clones>:
  400f20:	be b0 44 60 00       	mov    $0x6044b0,%esi
  400f25:	55                   	push   %rbp
  400f26:	48 81 ee b0 44 60 00 	sub    $0x6044b0,%rsi
  400f2d:	48 c1 fe 03          	sar    $0x3,%rsi
  400f31:	48 89 e5             	mov    %rsp,%rbp
  400f34:	48 89 f0             	mov    %rsi,%rax
  400f37:	48 c1 e8 3f          	shr    $0x3f,%rax
  400f3b:	48 01 c6             	add    %rax,%rsi
  400f3e:	48 d1 fe             	sar    %rsi
  400f41:	74 15                	je     400f58 <register_tm_clones+0x38>
  400f43:	b8 00 00 00 00       	mov    $0x0,%eax
  400f48:	48 85 c0             	test   %rax,%rax
  400f4b:	74 0b                	je     400f58 <register_tm_clones+0x38>
  400f4d:	5d                   	pop    %rbp
  400f4e:	bf b0 44 60 00       	mov    $0x6044b0,%edi
  400f53:	ff e0                	jmpq   *%rax
  400f55:	0f 1f 00             	nopl   (%rax)
  400f58:	5d                   	pop    %rbp
  400f59:	c3                   	retq   
  400f5a:	66 0f 1f 44 00 00    	nopw   0x0(%rax,%rax,1)

0000000000400f60 <__do_global_dtors_aux>:
  400f60:	80 3d 81 35 20 00 00 	cmpb   $0x0,0x203581(%rip)        # 6044e8 <completed.7594>
  400f67:	75 11                	jne    400f7a <__do_global_dtors_aux+0x1a>
  400f69:	55                   	push   %rbp
  400f6a:	48 89 e5             	mov    %rsp,%rbp
  400f6d:	e8 6e ff ff ff       	callq  400ee0 <deregister_tm_clones>
  400f72:	5d                   	pop    %rbp
  400f73:	c6 05 6e 35 20 00 01 	movb   $0x1,0x20356e(%rip)        # 6044e8 <completed.7594>
  400f7a:	f3 c3                	repz retq 
  400f7c:	0f 1f 40 00          	nopl   0x0(%rax)

0000000000400f80 <frame_dummy>:
  400f80:	bf 20 3e 60 00       	mov    $0x603e20,%edi
  400f85:	48 83 3f 00          	cmpq   $0x0,(%rdi)
  400f89:	75 05                	jne    400f90 <frame_dummy+0x10>
  400f8b:	eb 93                	jmp    400f20 <register_tm_clones>
  400f8d:	0f 1f 00             	nopl   (%rax)
  400f90:	b8 00 00 00 00       	mov    $0x0,%eax
  400f95:	48 85 c0             	test   %rax,%rax
  400f98:	74 f1                	je     400f8b <frame_dummy+0xb>
  400f9a:	55                   	push   %rbp
  400f9b:	48 89 e5             	mov    %rsp,%rbp
  400f9e:	ff d0                	callq  *%rax
  400fa0:	5d                   	pop    %rbp
  400fa1:	e9 7a ff ff ff       	jmpq   400f20 <register_tm_clones>

0000000000400fa6 <usage>:
  400fa6:	48 83 ec 08          	sub    $0x8,%rsp
  400faa:	48 89 fa             	mov    %rdi,%rdx
  400fad:	83 3d 74 35 20 00 00 	cmpl   $0x0,0x203574(%rip)        # 604528 <is_checker>
  400fb4:	74 3e                	je     400ff4 <usage+0x4e>
  400fb6:	be 78 2e 40 00       	mov    $0x402e78,%esi
  400fbb:	bf 01 00 00 00       	mov    $0x1,%edi
  400fc0:	b8 00 00 00 00       	mov    $0x0,%eax
  400fc5:	e8 36 fe ff ff       	callq  400e00 <__printf_chk@plt>
  400fca:	bf b0 2e 40 00       	mov    $0x402eb0,%edi
  400fcf:	e8 fc fc ff ff       	callq  400cd0 <puts@plt>
  400fd4:	bf 28 30 40 00       	mov    $0x403028,%edi
  400fd9:	e8 f2 fc ff ff       	callq  400cd0 <puts@plt>
  400fde:	bf d8 2e 40 00       	mov    $0x402ed8,%edi
  400fe3:	e8 e8 fc ff ff       	callq  400cd0 <puts@plt>
  400fe8:	bf 42 30 40 00       	mov    $0x403042,%edi
  400fed:	e8 de fc ff ff       	callq  400cd0 <puts@plt>
  400ff2:	eb 32                	jmp    401026 <usage+0x80>
  400ff4:	be 5e 30 40 00       	mov    $0x40305e,%esi
  400ff9:	bf 01 00 00 00       	mov    $0x1,%edi
  400ffe:	b8 00 00 00 00       	mov    $0x0,%eax
  401003:	e8 f8 fd ff ff       	callq  400e00 <__printf_chk@plt>
  401008:	bf 00 2f 40 00       	mov    $0x402f00,%edi
  40100d:	e8 be fc ff ff       	callq  400cd0 <puts@plt>
  401012:	bf 28 2f 40 00       	mov    $0x402f28,%edi
  401017:	e8 b4 fc ff ff       	callq  400cd0 <puts@plt>
  40101c:	bf 7c 30 40 00       	mov    $0x40307c,%edi
  401021:	e8 aa fc ff ff       	callq  400cd0 <puts@plt>
  401026:	bf 00 00 00 00       	mov    $0x0,%edi
  40102b:	e8 20 fe ff ff       	callq  400e50 <exit@plt>

0000000000401030 <initialize_target>:
  401030:	55                   	push   %rbp
  401031:	53                   	push   %rbx
  401032:	48 81 ec 18 21 00 00 	sub    $0x2118,%rsp
  401039:	89 f5                	mov    %esi,%ebp
  40103b:	64 48 8b 04 25 28 00 	mov    %fs:0x28,%rax
  401042:	00 00 
  401044:	48 89 84 24 08 21 00 	mov    %rax,0x2108(%rsp)
  40104b:	00 
  40104c:	31 c0                	xor    %eax,%eax
  40104e:	89 3d c4 34 20 00    	mov    %edi,0x2034c4(%rip)        # 604518 <check_level>
  401054:	8b 3d 0e 31 20 00    	mov    0x20310e(%rip),%edi        # 604168 <target_id>
  40105a:	e8 66 1d 00 00       	callq  402dc5 <gencookie>
  40105f:	89 05 bf 34 20 00    	mov    %eax,0x2034bf(%rip)        # 604524 <cookie>
  401065:	89 c7                	mov    %eax,%edi
  401067:	e8 59 1d 00 00       	callq  402dc5 <gencookie>
  40106c:	89 05 ae 34 20 00    	mov    %eax,0x2034ae(%rip)        # 604520 <authkey>
  401072:	8b 05 f0 30 20 00    	mov    0x2030f0(%rip),%eax        # 604168 <target_id>
  401078:	8d 78 01             	lea    0x1(%rax),%edi
  40107b:	e8 20 fc ff ff       	callq  400ca0 <srandom@plt>
  401080:	e8 3b fd ff ff       	callq  400dc0 <random@plt>
  401085:	89 c7                	mov    %eax,%edi
  401087:	e8 03 03 00 00       	callq  40138f <scramble>
  40108c:	89 c3                	mov    %eax,%ebx
  40108e:	85 ed                	test   %ebp,%ebp
  401090:	74 18                	je     4010aa <initialize_target+0x7a>
  401092:	bf 00 00 00 00       	mov    $0x0,%edi
  401097:	e8 14 fd ff ff       	callq  400db0 <time@plt>
  40109c:	89 c7                	mov    %eax,%edi
  40109e:	e8 fd fb ff ff       	callq  400ca0 <srandom@plt>
  4010a3:	e8 18 fd ff ff       	callq  400dc0 <random@plt>
  4010a8:	eb 05                	jmp    4010af <initialize_target+0x7f>
  4010aa:	b8 00 00 00 00       	mov    $0x0,%eax
  4010af:	01 c3                	add    %eax,%ebx
  4010b1:	0f b7 db             	movzwl %bx,%ebx
  4010b4:	8d 04 dd 00 01 00 00 	lea    0x100(,%rbx,8),%eax
  4010bb:	89 c0                	mov    %eax,%eax
  4010bd:	48 89 05 dc 33 20 00 	mov    %rax,0x2033dc(%rip)        # 6044a0 <buf_offset>
  4010c4:	c6 05 7d 40 20 00 63 	movb   $0x63,0x20407d(%rip)        # 605148 <target_prefix>
  4010cb:	83 3d d6 33 20 00 00 	cmpl   $0x0,0x2033d6(%rip)        # 6044a8 <notify>
  4010d2:	0f 84 bb 00 00 00    	je     401193 <initialize_target+0x163>
  4010d8:	83 3d 49 34 20 00 00 	cmpl   $0x0,0x203449(%rip)        # 604528 <is_checker>
  4010df:	0f 85 ae 00 00 00    	jne    401193 <initialize_target+0x163>
  4010e5:	be 00 01 00 00       	mov    $0x100,%esi
  4010ea:	48 89 e7             	mov    %rsp,%rdi
  4010ed:	e8 4e fd ff ff       	callq  400e40 <gethostname@plt>
  4010f2:	85 c0                	test   %eax,%eax
  4010f4:	74 25                	je     40111b <initialize_target+0xeb>
  4010f6:	bf 58 2f 40 00       	mov    $0x402f58,%edi
  4010fb:	e8 d0 fb ff ff       	callq  400cd0 <puts@plt>
  401100:	bf 08 00 00 00       	mov    $0x8,%edi
  401105:	e8 46 fd ff ff       	callq  400e50 <exit@plt>
  40110a:	48 89 e6             	mov    %rsp,%rsi
  40110d:	e8 6e fb ff ff       	callq  400c80 <strcasecmp@plt>
  401112:	85 c0                	test   %eax,%eax
  401114:	74 21                	je     401137 <initialize_target+0x107>
  401116:	83 c3 01             	add    $0x1,%ebx
  401119:	eb 05                	jmp    401120 <initialize_target+0xf0>
  40111b:	bb 00 00 00 00       	mov    $0x0,%ebx
  401120:	48 63 c3             	movslq %ebx,%rax
  401123:	48 8b 3c c5 80 41 60 	mov    0x604180(,%rax,8),%rdi
  40112a:	00 
  40112b:	48 85 ff             	test   %rdi,%rdi
  40112e:	75 da                	jne    40110a <initialize_target+0xda>
  401130:	b8 00 00 00 00       	mov    $0x0,%eax
  401135:	eb 05                	jmp    40113c <initialize_target+0x10c>
  401137:	b8 01 00 00 00       	mov    $0x1,%eax
  40113c:	85 c0                	test   %eax,%eax
  40113e:	75 1c                	jne    40115c <initialize_target+0x12c>
  401140:	48 89 e2             	mov    %rsp,%rdx
  401143:	be 90 2f 40 00       	mov    $0x402f90,%esi
  401148:	bf 01 00 00 00       	mov    $0x1,%edi
  40114d:	e8 ae fc ff ff       	callq  400e00 <__printf_chk@plt>
  401152:	bf 08 00 00 00       	mov    $0x8,%edi
  401157:	e8 f4 fc ff ff       	callq  400e50 <exit@plt>
  40115c:	48 8d bc 24 00 01 00 	lea    0x100(%rsp),%rdi
  401163:	00 
  401164:	e8 c6 19 00 00       	callq  402b2f <init_driver>
  401169:	85 c0                	test   %eax,%eax
  40116b:	79 26                	jns    401193 <initialize_target+0x163>
  40116d:	48 8d 94 24 00 01 00 	lea    0x100(%rsp),%rdx
  401174:	00 
  401175:	be d0 2f 40 00       	mov    $0x402fd0,%esi
  40117a:	bf 01 00 00 00       	mov    $0x1,%edi
  40117f:	b8 00 00 00 00       	mov    $0x0,%eax
  401184:	e8 77 fc ff ff       	callq  400e00 <__printf_chk@plt>
  401189:	bf 08 00 00 00       	mov    $0x8,%edi
  40118e:	e8 bd fc ff ff       	callq  400e50 <exit@plt>
  401193:	48 8b 84 24 08 21 00 	mov    0x2108(%rsp),%rax
  40119a:	00 
  40119b:	64 48 33 04 25 28 00 	xor    %fs:0x28,%rax
  4011a2:	00 00 
  4011a4:	74 05                	je     4011ab <initialize_target+0x17b>
  4011a6:	e8 45 fb ff ff       	callq  400cf0 <__stack_chk_fail@plt>
  4011ab:	48 81 c4 18 21 00 00 	add    $0x2118,%rsp
  4011b2:	5b                   	pop    %rbx
  4011b3:	5d                   	pop    %rbp
  4011b4:	c3                   	retq   

00000000004011b5 <main>:
  4011b5:	41 56                	push   %r14
  4011b7:	41 55                	push   %r13
  4011b9:	41 54                	push   %r12
  4011bb:	55                   	push   %rbp
  4011bc:	53                   	push   %rbx
  4011bd:	41 89 fc             	mov    %edi,%r12d
  4011c0:	48 89 f3             	mov    %rsi,%rbx
  4011c3:	be 6a 1e 40 00       	mov    $0x401e6a,%esi
  4011c8:	bf 0b 00 00 00       	mov    $0xb,%edi
  4011cd:	e8 8e fb ff ff       	callq  400d60 <signal@plt>
  4011d2:	be 1c 1e 40 00       	mov    $0x401e1c,%esi
  4011d7:	bf 07 00 00 00       	mov    $0x7,%edi
  4011dc:	e8 7f fb ff ff       	callq  400d60 <signal@plt>
  4011e1:	be b8 1e 40 00       	mov    $0x401eb8,%esi
  4011e6:	bf 04 00 00 00       	mov    $0x4,%edi
  4011eb:	e8 70 fb ff ff       	callq  400d60 <signal@plt>
  4011f0:	83 3d 31 33 20 00 00 	cmpl   $0x0,0x203331(%rip)        # 604528 <is_checker>
  4011f7:	74 20                	je     401219 <main+0x64>
  4011f9:	be 06 1f 40 00       	mov    $0x401f06,%esi
  4011fe:	bf 0e 00 00 00       	mov    $0xe,%edi
  401203:	e8 58 fb ff ff       	callq  400d60 <signal@plt>
  401208:	bf 05 00 00 00       	mov    $0x5,%edi
  40120d:	e8 0e fb ff ff       	callq  400d20 <alarm@plt>
  401212:	bd 9a 30 40 00       	mov    $0x40309a,%ebp
  401217:	eb 05                	jmp    40121e <main+0x69>
  401219:	bd 95 30 40 00       	mov    $0x403095,%ebp
  40121e:	48 8b 05 9b 32 20 00 	mov    0x20329b(%rip),%rax        # 6044c0 <stdin@@GLIBC_2.2.5>
  401225:	48 89 05 e4 32 20 00 	mov    %rax,0x2032e4(%rip)        # 604510 <infile>
  40122c:	41 bd 00 00 00 00    	mov    $0x0,%r13d
  401232:	41 be 00 00 00 00    	mov    $0x0,%r14d
  401238:	e9 c6 00 00 00       	jmpq   401303 <main+0x14e>
  40123d:	83 e8 61             	sub    $0x61,%eax
  401240:	3c 10                	cmp    $0x10,%al
  401242:	0f 87 9c 00 00 00    	ja     4012e4 <main+0x12f>
  401248:	0f b6 c0             	movzbl %al,%eax
  40124b:	ff 24 c5 e0 30 40 00 	jmpq   *0x4030e0(,%rax,8)
  401252:	48 8b 3b             	mov    (%rbx),%rdi
  401255:	e8 4c fd ff ff       	callq  400fa6 <usage>
  40125a:	be 8d 33 40 00       	mov    $0x40338d,%esi
  40125f:	48 8b 3d 62 32 20 00 	mov    0x203262(%rip),%rdi        # 6044c8 <optarg@@GLIBC_2.2.5>
  401266:	e8 a5 fb ff ff       	callq  400e10 <fopen@plt>
  40126b:	48 89 05 9e 32 20 00 	mov    %rax,0x20329e(%rip)        # 604510 <infile>
  401272:	48 85 c0             	test   %rax,%rax
  401275:	0f 85 88 00 00 00    	jne    401303 <main+0x14e>
  40127b:	48 8b 0d 46 32 20 00 	mov    0x203246(%rip),%rcx        # 6044c8 <optarg@@GLIBC_2.2.5>
  401282:	ba a2 30 40 00       	mov    $0x4030a2,%edx
  401287:	be 01 00 00 00       	mov    $0x1,%esi
  40128c:	48 8b 3d 4d 32 20 00 	mov    0x20324d(%rip),%rdi        # 6044e0 <stderr@@GLIBC_2.2.5>
  401293:	e8 d8 fb ff ff       	callq  400e70 <__fprintf_chk@plt>
  401298:	b8 01 00 00 00       	mov    $0x1,%eax
  40129d:	e9 e4 00 00 00       	jmpq   401386 <main+0x1d1>
  4012a2:	ba 10 00 00 00       	mov    $0x10,%edx
  4012a7:	be 00 00 00 00       	mov    $0x0,%esi
  4012ac:	48 8b 3d 15 32 20 00 	mov    0x203215(%rip),%rdi        # 6044c8 <optarg@@GLIBC_2.2.5>
  4012b3:	e8 78 fb ff ff       	callq  400e30 <strtoul@plt>
  4012b8:	41 89 c6             	mov    %eax,%r14d
  4012bb:	eb 46                	jmp    401303 <main+0x14e>
  4012bd:	ba 0a 00 00 00       	mov    $0xa,%edx
  4012c2:	be 00 00 00 00       	mov    $0x0,%esi
  4012c7:	48 8b 3d fa 31 20 00 	mov    0x2031fa(%rip),%rdi        # 6044c8 <optarg@@GLIBC_2.2.5>
  4012ce:	e8 bd fa ff ff       	callq  400d90 <strtol@plt>
  4012d3:	41 89 c5             	mov    %eax,%r13d
  4012d6:	eb 2b                	jmp    401303 <main+0x14e>
  4012d8:	c7 05 c6 31 20 00 00 	movl   $0x0,0x2031c6(%rip)        # 6044a8 <notify>
  4012df:	00 00 00 
  4012e2:	eb 1f                	jmp    401303 <main+0x14e>
  4012e4:	0f be d2             	movsbl %dl,%edx
  4012e7:	be bf 30 40 00       	mov    $0x4030bf,%esi
  4012ec:	bf 01 00 00 00       	mov    $0x1,%edi
  4012f1:	b8 00 00 00 00       	mov    $0x0,%eax
  4012f6:	e8 05 fb ff ff       	callq  400e00 <__printf_chk@plt>
  4012fb:	48 8b 3b             	mov    (%rbx),%rdi
  4012fe:	e8 a3 fc ff ff       	callq  400fa6 <usage>
  401303:	48 89 ea             	mov    %rbp,%rdx
  401306:	48 89 de             	mov    %rbx,%rsi
  401309:	44 89 e7             	mov    %r12d,%edi
  40130c:	e8 0f fb ff ff       	callq  400e20 <getopt@plt>
  401311:	89 c2                	mov    %eax,%edx
  401313:	3c ff                	cmp    $0xff,%al
  401315:	0f 85 22 ff ff ff    	jne    40123d <main+0x88>
  40131b:	be 00 00 00 00       	mov    $0x0,%esi
  401320:	44 89 ef             	mov    %r13d,%edi
  401323:	e8 08 fd ff ff       	callq  401030 <initialize_target>
  401328:	83 3d f9 31 20 00 00 	cmpl   $0x0,0x2031f9(%rip)        # 604528 <is_checker>
  40132f:	74 2a                	je     40135b <main+0x1a6>
  401331:	44 3b 35 e8 31 20 00 	cmp    0x2031e8(%rip),%r14d        # 604520 <authkey>
  401338:	74 21                	je     40135b <main+0x1a6>
  40133a:	44 89 f2             	mov    %r14d,%edx
  40133d:	be f8 2f 40 00       	mov    $0x402ff8,%esi
  401342:	bf 01 00 00 00       	mov    $0x1,%edi
  401347:	b8 00 00 00 00       	mov    $0x0,%eax
  40134c:	e8 af fa ff ff       	callq  400e00 <__printf_chk@plt>
  401351:	b8 00 00 00 00       	mov    $0x0,%eax
  401356:	e8 5d 07 00 00       	callq  401ab8 <check_fail>
  40135b:	8b 15 c3 31 20 00    	mov    0x2031c3(%rip),%edx        # 604524 <cookie>
  401361:	be d2 30 40 00       	mov    $0x4030d2,%esi
  401366:	bf 01 00 00 00       	mov    $0x1,%edi
  40136b:	b8 00 00 00 00       	mov    $0x0,%eax
  401370:	e8 8b fa ff ff       	callq  400e00 <__printf_chk@plt>
  401375:	48 8b 3d 24 31 20 00 	mov    0x203124(%rip),%rdi        # 6044a0 <buf_offset>
  40137c:	e8 85 0c 00 00       	callq  402006 <stable_launch>
  401381:	b8 00 00 00 00       	mov    $0x0,%eax
  401386:	5b                   	pop    %rbx
  401387:	5d                   	pop    %rbp
  401388:	41 5c                	pop    %r12
  40138a:	41 5d                	pop    %r13
  40138c:	41 5e                	pop    %r14
  40138e:	c3                   	retq   

000000000040138f <scramble>:
  40138f:	48 83 ec 38          	sub    $0x38,%rsp
  401393:	64 48 8b 04 25 28 00 	mov    %fs:0x28,%rax
  40139a:	00 00 
  40139c:	48 89 44 24 28       	mov    %rax,0x28(%rsp)
  4013a1:	31 c0                	xor    %eax,%eax
  4013a3:	eb 10                	jmp    4013b5 <scramble+0x26>
  4013a5:	69 d0 e9 88 00 00    	imul   $0x88e9,%eax,%edx
  4013ab:	01 fa                	add    %edi,%edx
  4013ad:	89 c1                	mov    %eax,%ecx
  4013af:	89 14 8c             	mov    %edx,(%rsp,%rcx,4)
  4013b2:	83 c0 01             	add    $0x1,%eax
  4013b5:	83 f8 09             	cmp    $0x9,%eax
  4013b8:	76 eb                	jbe    4013a5 <scramble+0x16>
  4013ba:	8b 44 24 20          	mov    0x20(%rsp),%eax
  4013be:	69 c0 0a ba 00 00    	imul   $0xba0a,%eax,%eax
  4013c4:	89 44 24 20          	mov    %eax,0x20(%rsp)
  4013c8:	8b 44 24 24          	mov    0x24(%rsp),%eax
  4013cc:	69 c0 c8 69 00 00    	imul   $0x69c8,%eax,%eax
  4013d2:	89 44 24 24          	mov    %eax,0x24(%rsp)
  4013d6:	8b 44 24 04          	mov    0x4(%rsp),%eax
  4013da:	69 c0 5e 30 00 00    	imul   $0x305e,%eax,%eax
  4013e0:	89 44 24 04          	mov    %eax,0x4(%rsp)
  4013e4:	8b 44 24 04          	mov    0x4(%rsp),%eax
  4013e8:	69 c0 6a 34 00 00    	imul   $0x346a,%eax,%eax
  4013ee:	89 44 24 04          	mov    %eax,0x4(%rsp)
  4013f2:	8b 44 24 10          	mov    0x10(%rsp),%eax
  4013f6:	69 c0 15 b3 00 00    	imul   $0xb315,%eax,%eax
  4013fc:	89 44 24 10          	mov    %eax,0x10(%rsp)
  401400:	8b 44 24 0c          	mov    0xc(%rsp),%eax
  401404:	69 c0 b8 d0 00 00    	imul   $0xd0b8,%eax,%eax
  40140a:	89 44 24 0c          	mov    %eax,0xc(%rsp)
  40140e:	8b 44 24 10          	mov    0x10(%rsp),%eax
  401412:	69 c0 82 1f 00 00    	imul   $0x1f82,%eax,%eax
  401418:	89 44 24 10          	mov    %eax,0x10(%rsp)
  40141c:	8b 44 24 08          	mov    0x8(%rsp),%eax
  401420:	69 c0 e2 3c 00 00    	imul   $0x3ce2,%eax,%eax
  401426:	89 44 24 08          	mov    %eax,0x8(%rsp)
  40142a:	8b 44 24 20          	mov    0x20(%rsp),%eax
  40142e:	69 c0 11 42 00 00    	imul   $0x4211,%eax,%eax
  401434:	89 44 24 20          	mov    %eax,0x20(%rsp)
  401438:	8b 44 24 04          	mov    0x4(%rsp),%eax
  40143c:	69 c0 3a ef 00 00    	imul   $0xef3a,%eax,%eax
  401442:	89 44 24 04          	mov    %eax,0x4(%rsp)
  401446:	8b 44 24 24          	mov    0x24(%rsp),%eax
  40144a:	69 c0 7f f7 00 00    	imul   $0xf77f,%eax,%eax
  401450:	89 44 24 24          	mov    %eax,0x24(%rsp)
  401454:	8b 44 24 24          	mov    0x24(%rsp),%eax
  401458:	69 c0 9d 13 00 00    	imul   $0x139d,%eax,%eax
  40145e:	89 44 24 24          	mov    %eax,0x24(%rsp)
  401462:	8b 44 24 18          	mov    0x18(%rsp),%eax
  401466:	69 c0 f2 26 00 00    	imul   $0x26f2,%eax,%eax
  40146c:	89 44 24 18          	mov    %eax,0x18(%rsp)
  401470:	8b 44 24 1c          	mov    0x1c(%rsp),%eax
  401474:	69 c0 9e 3f 00 00    	imul   $0x3f9e,%eax,%eax
  40147a:	89 44 24 1c          	mov    %eax,0x1c(%rsp)
  40147e:	8b 04 24             	mov    (%rsp),%eax
  401481:	69 c0 45 20 00 00    	imul   $0x2045,%eax,%eax
  401487:	89 04 24             	mov    %eax,(%rsp)
  40148a:	8b 44 24 0c          	mov    0xc(%rsp),%eax
  40148e:	69 c0 a3 c8 00 00    	imul   $0xc8a3,%eax,%eax
  401494:	89 44 24 0c          	mov    %eax,0xc(%rsp)
  401498:	8b 44 24 1c          	mov    0x1c(%rsp),%eax
  40149c:	69 c0 75 a3 00 00    	imul   $0xa375,%eax,%eax
  4014a2:	89 44 24 1c          	mov    %eax,0x1c(%rsp)
  4014a6:	8b 44 24 04          	mov    0x4(%rsp),%eax
  4014aa:	69 c0 87 c2 00 00    	imul   $0xc287,%eax,%eax
  4014b0:	89 44 24 04          	mov    %eax,0x4(%rsp)
  4014b4:	8b 44 24 0c          	mov    0xc(%rsp),%eax
  4014b8:	69 c0 ce 93 00 00    	imul   $0x93ce,%eax,%eax
  4014be:	89 44 24 0c          	mov    %eax,0xc(%rsp)
  4014c2:	8b 04 24             	mov    (%rsp),%eax
  4014c5:	69 c0 e8 41 00 00    	imul   $0x41e8,%eax,%eax
  4014cb:	89 04 24             	mov    %eax,(%rsp)
  4014ce:	8b 44 24 08          	mov    0x8(%rsp),%eax
  4014d2:	69 c0 73 c0 00 00    	imul   $0xc073,%eax,%eax
  4014d8:	89 44 24 08          	mov    %eax,0x8(%rsp)
  4014dc:	8b 44 24 0c          	mov    0xc(%rsp),%eax
  4014e0:	69 c0 1f 44 00 00    	imul   $0x441f,%eax,%eax
  4014e6:	89 44 24 0c          	mov    %eax,0xc(%rsp)
  4014ea:	8b 44 24 1c          	mov    0x1c(%rsp),%eax
  4014ee:	69 c0 ae 19 00 00    	imul   $0x19ae,%eax,%eax
  4014f4:	89 44 24 1c          	mov    %eax,0x1c(%rsp)
  4014f8:	8b 44 24 18          	mov    0x18(%rsp),%eax
  4014fc:	69 c0 19 30 00 00    	imul   $0x3019,%eax,%eax
  401502:	89 44 24 18          	mov    %eax,0x18(%rsp)
  401506:	8b 44 24 24          	mov    0x24(%rsp),%eax
  40150a:	69 c0 9e 47 00 00    	imul   $0x479e,%eax,%eax
  401510:	89 44 24 24          	mov    %eax,0x24(%rsp)
  401514:	8b 44 24 1c          	mov    0x1c(%rsp),%eax
  401518:	69 c0 6b a7 00 00    	imul   $0xa76b,%eax,%eax
  40151e:	89 44 24 1c          	mov    %eax,0x1c(%rsp)
  401522:	8b 04 24             	mov    (%rsp),%eax
  401525:	69 c0 4f d9 00 00    	imul   $0xd94f,%eax,%eax
  40152b:	89 04 24             	mov    %eax,(%rsp)
  40152e:	8b 44 24 14          	mov    0x14(%rsp),%eax
  401532:	69 c0 8a 83 00 00    	imul   $0x838a,%eax,%eax
  401538:	89 44 24 14          	mov    %eax,0x14(%rsp)
  40153c:	8b 44 24 14          	mov    0x14(%rsp),%eax
  401540:	69 c0 26 a6 00 00    	imul   $0xa626,%eax,%eax
  401546:	89 44 24 14          	mov    %eax,0x14(%rsp)
  40154a:	8b 44 24 24          	mov    0x24(%rsp),%eax
  40154e:	69 c0 fa 3f 00 00    	imul   $0x3ffa,%eax,%eax
  401554:	89 44 24 24          	mov    %eax,0x24(%rsp)
  401558:	8b 44 24 0c          	mov    0xc(%rsp),%eax
  40155c:	69 c0 15 37 00 00    	imul   $0x3715,%eax,%eax
  401562:	89 44 24 0c          	mov    %eax,0xc(%rsp)
  401566:	8b 44 24 18          	mov    0x18(%rsp),%eax
  40156a:	69 c0 bb a0 00 00    	imul   $0xa0bb,%eax,%eax
  401570:	89 44 24 18          	mov    %eax,0x18(%rsp)
  401574:	8b 44 24 20          	mov    0x20(%rsp),%eax
  401578:	69 c0 08 3b 00 00    	imul   $0x3b08,%eax,%eax
  40157e:	89 44 24 20          	mov    %eax,0x20(%rsp)
  401582:	8b 44 24 0c          	mov    0xc(%rsp),%eax
  401586:	69 c0 5e ae 00 00    	imul   $0xae5e,%eax,%eax
  40158c:	89 44 24 0c          	mov    %eax,0xc(%rsp)
  401590:	8b 44 24 08          	mov    0x8(%rsp),%eax
  401594:	69 c0 33 5a 00 00    	imul   $0x5a33,%eax,%eax
  40159a:	89 44 24 08          	mov    %eax,0x8(%rsp)
  40159e:	8b 04 24             	mov    (%rsp),%eax
  4015a1:	69 c0 bb 15 00 00    	imul   $0x15bb,%eax,%eax
  4015a7:	89 04 24             	mov    %eax,(%rsp)
  4015aa:	8b 44 24 08          	mov    0x8(%rsp),%eax
  4015ae:	69 c0 e7 02 00 00    	imul   $0x2e7,%eax,%eax
  4015b4:	89 44 24 08          	mov    %eax,0x8(%rsp)
  4015b8:	8b 44 24 14          	mov    0x14(%rsp),%eax
  4015bc:	69 c0 9b fa 00 00    	imul   $0xfa9b,%eax,%eax
  4015c2:	89 44 24 14          	mov    %eax,0x14(%rsp)
  4015c6:	8b 04 24             	mov    (%rsp),%eax
  4015c9:	69 c0 dc da 00 00    	imul   $0xdadc,%eax,%eax
  4015cf:	89 04 24             	mov    %eax,(%rsp)
  4015d2:	8b 44 24 20          	mov    0x20(%rsp),%eax
  4015d6:	69 c0 55 78 00 00    	imul   $0x7855,%eax,%eax
  4015dc:	89 44 24 20          	mov    %eax,0x20(%rsp)
  4015e0:	8b 44 24 08          	mov    0x8(%rsp),%eax
  4015e4:	69 c0 08 4a 00 00    	imul   $0x4a08,%eax,%eax
  4015ea:	89 44 24 08          	mov    %eax,0x8(%rsp)
  4015ee:	8b 44 24 04          	mov    0x4(%rsp),%eax
  4015f2:	69 c0 97 61 00 00    	imul   $0x6197,%eax,%eax
  4015f8:	89 44 24 04          	mov    %eax,0x4(%rsp)
  4015fc:	8b 44 24 14          	mov    0x14(%rsp),%eax
  401600:	69 c0 c8 da 00 00    	imul   $0xdac8,%eax,%eax
  401606:	89 44 24 14          	mov    %eax,0x14(%rsp)
  40160a:	8b 44 24 04          	mov    0x4(%rsp),%eax
  40160e:	69 c0 98 23 00 00    	imul   $0x2398,%eax,%eax
  401614:	89 44 24 04          	mov    %eax,0x4(%rsp)
  401618:	8b 44 24 08          	mov    0x8(%rsp),%eax
  40161c:	69 c0 4a a8 00 00    	imul   $0xa84a,%eax,%eax
  401622:	89 44 24 08          	mov    %eax,0x8(%rsp)
  401626:	8b 04 24             	mov    (%rsp),%eax
  401629:	69 c0 5a 47 00 00    	imul   $0x475a,%eax,%eax
  40162f:	89 04 24             	mov    %eax,(%rsp)
  401632:	8b 44 24 1c          	mov    0x1c(%rsp),%eax
  401636:	69 c0 30 6c 00 00    	imul   $0x6c30,%eax,%eax
  40163c:	89 44 24 1c          	mov    %eax,0x1c(%rsp)
  401640:	8b 04 24             	mov    (%rsp),%eax
  401643:	69 c0 ea b9 00 00    	imul   $0xb9ea,%eax,%eax
  401649:	89 04 24             	mov    %eax,(%rsp)
  40164c:	8b 44 24 18          	mov    0x18(%rsp),%eax
  401650:	69 c0 57 4b 00 00    	imul   $0x4b57,%eax,%eax
  401656:	89 44 24 18          	mov    %eax,0x18(%rsp)
  40165a:	8b 04 24             	mov    (%rsp),%eax
  40165d:	69 c0 0f 76 00 00    	imul   $0x760f,%eax,%eax
  401663:	89 04 24             	mov    %eax,(%rsp)
  401666:	8b 04 24             	mov    (%rsp),%eax
  401669:	69 c0 8f 58 00 00    	imul   $0x588f,%eax,%eax
  40166f:	89 04 24             	mov    %eax,(%rsp)
  401672:	8b 44 24 20          	mov    0x20(%rsp),%eax
  401676:	69 c0 30 c0 00 00    	imul   $0xc030,%eax,%eax
  40167c:	89 44 24 20          	mov    %eax,0x20(%rsp)
  401680:	8b 44 24 1c          	mov    0x1c(%rsp),%eax
  401684:	69 c0 a5 e5 00 00    	imul   $0xe5a5,%eax,%eax
  40168a:	89 44 24 1c          	mov    %eax,0x1c(%rsp)
  40168e:	8b 44 24 0c          	mov    0xc(%rsp),%eax
  401692:	69 c0 0b 78 00 00    	imul   $0x780b,%eax,%eax
  401698:	89 44 24 0c          	mov    %eax,0xc(%rsp)
  40169c:	8b 44 24 24          	mov    0x24(%rsp),%eax
  4016a0:	69 c0 80 e5 00 00    	imul   $0xe580,%eax,%eax
  4016a6:	89 44 24 24          	mov    %eax,0x24(%rsp)
  4016aa:	8b 04 24             	mov    (%rsp),%eax
  4016ad:	69 c0 fb e2 00 00    	imul   $0xe2fb,%eax,%eax
  4016b3:	89 04 24             	mov    %eax,(%rsp)
  4016b6:	8b 44 24 20          	mov    0x20(%rsp),%eax
  4016ba:	69 c0 21 10 00 00    	imul   $0x1021,%eax,%eax
  4016c0:	89 44 24 20          	mov    %eax,0x20(%rsp)
  4016c4:	8b 44 24 10          	mov    0x10(%rsp),%eax
  4016c8:	69 c0 df 52 00 00    	imul   $0x52df,%eax,%eax
  4016ce:	89 44 24 10          	mov    %eax,0x10(%rsp)
  4016d2:	8b 44 24 04          	mov    0x4(%rsp),%eax
  4016d6:	69 c0 b3 29 00 00    	imul   $0x29b3,%eax,%eax
  4016dc:	89 44 24 04          	mov    %eax,0x4(%rsp)
  4016e0:	8b 44 24 20          	mov    0x20(%rsp),%eax
  4016e4:	69 c0 d9 6b 00 00    	imul   $0x6bd9,%eax,%eax
  4016ea:	89 44 24 20          	mov    %eax,0x20(%rsp)
  4016ee:	8b 44 24 24          	mov    0x24(%rsp),%eax
  4016f2:	69 c0 09 da 00 00    	imul   $0xda09,%eax,%eax
  4016f8:	89 44 24 24          	mov    %eax,0x24(%rsp)
  4016fc:	8b 44 24 0c          	mov    0xc(%rsp),%eax
  401700:	69 c0 5e b1 00 00    	imul   $0xb15e,%eax,%eax
  401706:	89 44 24 0c          	mov    %eax,0xc(%rsp)
  40170a:	8b 44 24 20          	mov    0x20(%rsp),%eax
  40170e:	69 c0 49 9b 00 00    	imul   $0x9b49,%eax,%eax
  401714:	89 44 24 20          	mov    %eax,0x20(%rsp)
  401718:	8b 44 24 18          	mov    0x18(%rsp),%eax
  40171c:	69 c0 72 ed 00 00    	imul   $0xed72,%eax,%eax
  401722:	89 44 24 18          	mov    %eax,0x18(%rsp)
  401726:	8b 44 24 24          	mov    0x24(%rsp),%eax
  40172a:	69 c0 91 d3 00 00    	imul   $0xd391,%eax,%eax
  401730:	89 44 24 24          	mov    %eax,0x24(%rsp)
  401734:	8b 04 24             	mov    (%rsp),%eax
  401737:	69 c0 2b 8c 00 00    	imul   $0x8c2b,%eax,%eax
  40173d:	89 04 24             	mov    %eax,(%rsp)
  401740:	8b 44 24 04          	mov    0x4(%rsp),%eax
  401744:	69 c0 4c ef 00 00    	imul   $0xef4c,%eax,%eax
  40174a:	89 44 24 04          	mov    %eax,0x4(%rsp)
  40174e:	8b 44 24 14          	mov    0x14(%rsp),%eax
  401752:	69 c0 96 87 00 00    	imul   $0x8796,%eax,%eax
  401758:	89 44 24 14          	mov    %eax,0x14(%rsp)
  40175c:	8b 44 24 14          	mov    0x14(%rsp),%eax
  401760:	69 c0 27 07 00 00    	imul   $0x727,%eax,%eax
  401766:	89 44 24 14          	mov    %eax,0x14(%rsp)
  40176a:	8b 44 24 24          	mov    0x24(%rsp),%eax
  40176e:	69 c0 72 95 00 00    	imul   $0x9572,%eax,%eax
  401774:	89 44 24 24          	mov    %eax,0x24(%rsp)
  401778:	8b 44 24 04          	mov    0x4(%rsp),%eax
  40177c:	69 c0 02 f0 00 00    	imul   $0xf002,%eax,%eax
  401782:	89 44 24 04          	mov    %eax,0x4(%rsp)
  401786:	8b 44 24 18          	mov    0x18(%rsp),%eax
  40178a:	69 c0 2f 1c 00 00    	imul   $0x1c2f,%eax,%eax
  401790:	89 44 24 18          	mov    %eax,0x18(%rsp)
  401794:	8b 44 24 10          	mov    0x10(%rsp),%eax
  401798:	69 c0 ff bc 00 00    	imul   $0xbcff,%eax,%eax
  40179e:	89 44 24 10          	mov    %eax,0x10(%rsp)
  4017a2:	8b 44 24 20          	mov    0x20(%rsp),%eax
  4017a6:	69 c0 0e eb 00 00    	imul   $0xeb0e,%eax,%eax
  4017ac:	89 44 24 20          	mov    %eax,0x20(%rsp)
  4017b0:	8b 44 24 24          	mov    0x24(%rsp),%eax
  4017b4:	69 c0 85 e5 00 00    	imul   $0xe585,%eax,%eax
  4017ba:	89 44 24 24          	mov    %eax,0x24(%rsp)
  4017be:	8b 44 24 08          	mov    0x8(%rsp),%eax
  4017c2:	69 c0 b0 b8 00 00    	imul   $0xb8b0,%eax,%eax
  4017c8:	89 44 24 08          	mov    %eax,0x8(%rsp)
  4017cc:	8b 44 24 20          	mov    0x20(%rsp),%eax
  4017d0:	69 c0 1a 0a 00 00    	imul   $0xa1a,%eax,%eax
  4017d6:	89 44 24 20          	mov    %eax,0x20(%rsp)
  4017da:	8b 44 24 24          	mov    0x24(%rsp),%eax
  4017de:	69 c0 c8 05 00 00    	imul   $0x5c8,%eax,%eax
  4017e4:	89 44 24 24          	mov    %eax,0x24(%rsp)
  4017e8:	8b 44 24 08          	mov    0x8(%rsp),%eax
  4017ec:	69 c0 57 d5 00 00    	imul   $0xd557,%eax,%eax
  4017f2:	89 44 24 08          	mov    %eax,0x8(%rsp)
  4017f6:	8b 44 24 18          	mov    0x18(%rsp),%eax
  4017fa:	69 c0 04 8c 00 00    	imul   $0x8c04,%eax,%eax
  401800:	89 44 24 18          	mov    %eax,0x18(%rsp)
  401804:	8b 44 24 14          	mov    0x14(%rsp),%eax
  401808:	69 c0 bb 56 00 00    	imul   $0x56bb,%eax,%eax
  40180e:	89 44 24 14          	mov    %eax,0x14(%rsp)
  401812:	8b 44 24 0c          	mov    0xc(%rsp),%eax
  401816:	69 c0 08 d5 00 00    	imul   $0xd508,%eax,%eax
  40181c:	89 44 24 0c          	mov    %eax,0xc(%rsp)
  401820:	8b 44 24 20          	mov    0x20(%rsp),%eax
  401824:	69 c0 8a 64 00 00    	imul   $0x648a,%eax,%eax
  40182a:	89 44 24 20          	mov    %eax,0x20(%rsp)
  40182e:	ba 00 00 00 00       	mov    $0x0,%edx
  401833:	b8 00 00 00 00       	mov    $0x0,%eax
  401838:	eb 0a                	jmp    401844 <scramble+0x4b5>
  40183a:	89 d1                	mov    %edx,%ecx
  40183c:	8b 0c 8c             	mov    (%rsp,%rcx,4),%ecx
  40183f:	01 c8                	add    %ecx,%eax
  401841:	83 c2 01             	add    $0x1,%edx
  401844:	83 fa 09             	cmp    $0x9,%edx
  401847:	76 f1                	jbe    40183a <scramble+0x4ab>
  401849:	48 8b 74 24 28       	mov    0x28(%rsp),%rsi
  40184e:	64 48 33 34 25 28 00 	xor    %fs:0x28,%rsi
  401855:	00 00 
  401857:	74 05                	je     40185e <scramble+0x4cf>
  401859:	e8 92 f4 ff ff       	callq  400cf0 <__stack_chk_fail@plt>
  40185e:	48 83 c4 38          	add    $0x38,%rsp
  401862:	c3                   	retq   

0000000000401863 <getbuf>:
  401863:	48 83 ec 28          	sub    $0x28,%rsp
  401867:	48 89 e7             	mov    %rsp,%rdi
  40186a:	e8 7e 02 00 00       	callq  401aed <Gets>
  40186f:	b8 01 00 00 00       	mov    $0x1,%eax
  401874:	48 83 c4 28          	add    $0x28,%rsp
  401878:	c3                   	retq   

0000000000401879 <touch1>:
  401879:	48 83 ec 08          	sub    $0x8,%rsp
  40187d:	c7 05 95 2c 20 00 01 	movl   $0x1,0x202c95(%rip)        # 60451c <vlevel>
  401884:	00 00 00 
  401887:	bf e6 31 40 00       	mov    $0x4031e6,%edi
  40188c:	e8 3f f4 ff ff       	callq  400cd0 <puts@plt>
  401891:	bf 01 00 00 00       	mov    $0x1,%edi
  401896:	e8 97 04 00 00       	callq  401d32 <validate>
  40189b:	bf 00 00 00 00       	mov    $0x0,%edi
  4018a0:	e8 ab f5 ff ff       	callq  400e50 <exit@plt>

00000000004018a5 <touch2>:
  4018a5:	48 83 ec 08          	sub    $0x8,%rsp
  4018a9:	89 fa                	mov    %edi,%edx
  4018ab:	c7 05 67 2c 20 00 02 	movl   $0x2,0x202c67(%rip)        # 60451c <vlevel>
  4018b2:	00 00 00 
  4018b5:	39 3d 69 2c 20 00    	cmp    %edi,0x202c69(%rip)        # 604524 <cookie>
  4018bb:	75 20                	jne    4018dd <touch2+0x38>
  4018bd:	be 08 32 40 00       	mov    $0x403208,%esi
  4018c2:	bf 01 00 00 00       	mov    $0x1,%edi
  4018c7:	b8 00 00 00 00       	mov    $0x0,%eax
  4018cc:	e8 2f f5 ff ff       	callq  400e00 <__printf_chk@plt>
  4018d1:	bf 02 00 00 00       	mov    $0x2,%edi
  4018d6:	e8 57 04 00 00       	callq  401d32 <validate>
  4018db:	eb 1e                	jmp    4018fb <touch2+0x56>
  4018dd:	be 30 32 40 00       	mov    $0x403230,%esi
  4018e2:	bf 01 00 00 00       	mov    $0x1,%edi
  4018e7:	b8 00 00 00 00       	mov    $0x0,%eax
  4018ec:	e8 0f f5 ff ff       	callq  400e00 <__printf_chk@plt>
  4018f1:	bf 02 00 00 00       	mov    $0x2,%edi
  4018f6:	e8 f9 04 00 00       	callq  401df4 <fail>
  4018fb:	bf 00 00 00 00       	mov    $0x0,%edi
  401900:	e8 4b f5 ff ff       	callq  400e50 <exit@plt>

0000000000401905 <hexmatch>:
  401905:	41 54                	push   %r12
  401907:	55                   	push   %rbp
  401908:	53                   	push   %rbx
  401909:	48 83 c4 80          	add    $0xffffffffffffff80,%rsp
  40190d:	89 fd                	mov    %edi,%ebp
  40190f:	48 89 f3             	mov    %rsi,%rbx
  401912:	64 48 8b 04 25 28 00 	mov    %fs:0x28,%rax
  401919:	00 00 
  40191b:	48 89 44 24 78       	mov    %rax,0x78(%rsp)
  401920:	31 c0                	xor    %eax,%eax
  401922:	e8 99 f4 ff ff       	callq  400dc0 <random@plt>
  401927:	48 89 c1             	mov    %rax,%rcx
  40192a:	48 ba 0b d7 a3 70 3d 	movabs $0xa3d70a3d70a3d70b,%rdx
  401931:	0a d7 a3 
  401934:	48 f7 ea             	imul   %rdx
  401937:	48 01 ca             	add    %rcx,%rdx
  40193a:	48 c1 fa 06          	sar    $0x6,%rdx
  40193e:	48 89 c8             	mov    %rcx,%rax
  401941:	48 c1 f8 3f          	sar    $0x3f,%rax
  401945:	48 29 c2             	sub    %rax,%rdx
  401948:	48 8d 04 92          	lea    (%rdx,%rdx,4),%rax
  40194c:	48 8d 14 80          	lea    (%rax,%rax,4),%rdx
  401950:	48 8d 04 95 00 00 00 	lea    0x0(,%rdx,4),%rax
  401957:	00 
  401958:	48 29 c1             	sub    %rax,%rcx
  40195b:	4c 8d 24 0c          	lea    (%rsp,%rcx,1),%r12
  40195f:	41 89 e8             	mov    %ebp,%r8d
  401962:	b9 03 32 40 00       	mov    $0x403203,%ecx
  401967:	48 c7 c2 ff ff ff ff 	mov    $0xffffffffffffffff,%rdx
  40196e:	be 01 00 00 00       	mov    $0x1,%esi
  401973:	4c 89 e7             	mov    %r12,%rdi
  401976:	b8 00 00 00 00       	mov    $0x0,%eax
  40197b:	e8 00 f5 ff ff       	callq  400e80 <__sprintf_chk@plt>
  401980:	ba 09 00 00 00       	mov    $0x9,%edx
  401985:	4c 89 e6             	mov    %r12,%rsi
  401988:	48 89 df             	mov    %rbx,%rdi
  40198b:	e8 20 f3 ff ff       	callq  400cb0 <strncmp@plt>
  401990:	85 c0                	test   %eax,%eax
  401992:	0f 94 c0             	sete   %al
  401995:	48 8b 5c 24 78       	mov    0x78(%rsp),%rbx
  40199a:	64 48 33 1c 25 28 00 	xor    %fs:0x28,%rbx
  4019a1:	00 00 
  4019a3:	74 05                	je     4019aa <hexmatch+0xa5>
  4019a5:	e8 46 f3 ff ff       	callq  400cf0 <__stack_chk_fail@plt>
  4019aa:	0f b6 c0             	movzbl %al,%eax
  4019ad:	48 83 ec 80          	sub    $0xffffffffffffff80,%rsp
  4019b1:	5b                   	pop    %rbx
  4019b2:	5d                   	pop    %rbp
  4019b3:	41 5c                	pop    %r12
  4019b5:	c3                   	retq   

00000000004019b6 <touch3>:
  4019b6:	53                   	push   %rbx
  4019b7:	48 89 fb             	mov    %rdi,%rbx
  4019ba:	c7 05 58 2b 20 00 03 	movl   $0x3,0x202b58(%rip)        # 60451c <vlevel>
  4019c1:	00 00 00 
  4019c4:	48 89 fe             	mov    %rdi,%rsi
  4019c7:	8b 3d 57 2b 20 00    	mov    0x202b57(%rip),%edi        # 604524 <cookie>
  4019cd:	e8 33 ff ff ff       	callq  401905 <hexmatch>
  4019d2:	85 c0                	test   %eax,%eax
  4019d4:	74 23                	je     4019f9 <touch3+0x43>
  4019d6:	48 89 da             	mov    %rbx,%rdx
  4019d9:	be 58 32 40 00       	mov    $0x403258,%esi
  4019de:	bf 01 00 00 00       	mov    $0x1,%edi
  4019e3:	b8 00 00 00 00       	mov    $0x0,%eax
  4019e8:	e8 13 f4 ff ff       	callq  400e00 <__printf_chk@plt>
  4019ed:	bf 03 00 00 00       	mov    $0x3,%edi
  4019f2:	e8 3b 03 00 00       	callq  401d32 <validate>
  4019f7:	eb 21                	jmp    401a1a <touch3+0x64>
  4019f9:	48 89 da             	mov    %rbx,%rdx
  4019fc:	be 80 32 40 00       	mov    $0x403280,%esi
  401a01:	bf 01 00 00 00       	mov    $0x1,%edi
  401a06:	b8 00 00 00 00       	mov    $0x0,%eax
  401a0b:	e8 f0 f3 ff ff       	callq  400e00 <__printf_chk@plt>
  401a10:	bf 03 00 00 00       	mov    $0x3,%edi
  401a15:	e8 da 03 00 00       	callq  401df4 <fail>
  401a1a:	bf 00 00 00 00       	mov    $0x0,%edi
  401a1f:	e8 2c f4 ff ff       	callq  400e50 <exit@plt>

0000000000401a24 <test>:
  401a24:	48 83 ec 08          	sub    $0x8,%rsp
  401a28:	b8 00 00 00 00       	mov    $0x0,%eax
  401a2d:	e8 31 fe ff ff       	callq  401863 <getbuf>
  401a32:	89 c2                	mov    %eax,%edx
  401a34:	be a8 32 40 00       	mov    $0x4032a8,%esi
  401a39:	bf 01 00 00 00       	mov    $0x1,%edi
  401a3e:	b8 00 00 00 00       	mov    $0x0,%eax
  401a43:	e8 b8 f3 ff ff       	callq  400e00 <__printf_chk@plt>
  401a48:	48 83 c4 08          	add    $0x8,%rsp
  401a4c:	c3                   	retq   

0000000000401a4d <save_char>:
  401a4d:	8b 05 f1 36 20 00    	mov    0x2036f1(%rip),%eax        # 605144 <gets_cnt>
  401a53:	3d ff 03 00 00       	cmp    $0x3ff,%eax
  401a58:	7f 49                	jg     401aa3 <save_char+0x56>
  401a5a:	8d 14 40             	lea    (%rax,%rax,2),%edx
  401a5d:	89 f9                	mov    %edi,%ecx
  401a5f:	c0 e9 04             	shr    $0x4,%cl
  401a62:	83 e1 0f             	and    $0xf,%ecx
  401a65:	0f b6 b1 d0 35 40 00 	movzbl 0x4035d0(%rcx),%esi
  401a6c:	48 63 ca             	movslq %edx,%rcx
  401a6f:	40 88 b1 40 45 60 00 	mov    %sil,0x604540(%rcx)
  401a76:	8d 4a 01             	lea    0x1(%rdx),%ecx
  401a79:	83 e7 0f             	and    $0xf,%edi
  401a7c:	0f b6 b7 d0 35 40 00 	movzbl 0x4035d0(%rdi),%esi
  401a83:	48 63 c9             	movslq %ecx,%rcx
  401a86:	40 88 b1 40 45 60 00 	mov    %sil,0x604540(%rcx)
  401a8d:	83 c2 02             	add    $0x2,%edx
  401a90:	48 63 d2             	movslq %edx,%rdx
  401a93:	c6 82 40 45 60 00 20 	movb   $0x20,0x604540(%rdx)
  401a9a:	83 c0 01             	add    $0x1,%eax
  401a9d:	89 05 a1 36 20 00    	mov    %eax,0x2036a1(%rip)        # 605144 <gets_cnt>
  401aa3:	f3 c3                	repz retq 

0000000000401aa5 <save_term>:
  401aa5:	8b 05 99 36 20 00    	mov    0x203699(%rip),%eax        # 605144 <gets_cnt>
  401aab:	8d 04 40             	lea    (%rax,%rax,2),%eax
  401aae:	48 98                	cltq   
  401ab0:	c6 80 40 45 60 00 00 	movb   $0x0,0x604540(%rax)
  401ab7:	c3                   	retq   

0000000000401ab8 <check_fail>:
  401ab8:	48 83 ec 08          	sub    $0x8,%rsp
  401abc:	0f be 15 85 36 20 00 	movsbl 0x203685(%rip),%edx        # 605148 <target_prefix>
  401ac3:	41 b8 40 45 60 00    	mov    $0x604540,%r8d
  401ac9:	8b 0d 49 2a 20 00    	mov    0x202a49(%rip),%ecx        # 604518 <check_level>
  401acf:	be cb 32 40 00       	mov    $0x4032cb,%esi
  401ad4:	bf 01 00 00 00       	mov    $0x1,%edi
  401ad9:	b8 00 00 00 00       	mov    $0x0,%eax
  401ade:	e8 1d f3 ff ff       	callq  400e00 <__printf_chk@plt>
  401ae3:	bf 01 00 00 00       	mov    $0x1,%edi
  401ae8:	e8 63 f3 ff ff       	callq  400e50 <exit@plt>

0000000000401aed <Gets>:
  401aed:	41 54                	push   %r12
  401aef:	55                   	push   %rbp
  401af0:	53                   	push   %rbx
  401af1:	49 89 fc             	mov    %rdi,%r12
  401af4:	c7 05 46 36 20 00 00 	movl   $0x0,0x203646(%rip)        # 605144 <gets_cnt>
  401afb:	00 00 00 
  401afe:	48 89 fb             	mov    %rdi,%rbx
  401b01:	eb 11                	jmp    401b14 <Gets+0x27>
  401b03:	48 8d 6b 01          	lea    0x1(%rbx),%rbp
  401b07:	88 03                	mov    %al,(%rbx)
  401b09:	0f b6 f8             	movzbl %al,%edi
  401b0c:	e8 3c ff ff ff       	callq  401a4d <save_char>
  401b11:	48 89 eb             	mov    %rbp,%rbx
  401b14:	48 8b 3d f5 29 20 00 	mov    0x2029f5(%rip),%rdi        # 604510 <infile>
  401b1b:	e8 b0 f2 ff ff       	callq  400dd0 <_IO_getc@plt>
  401b20:	83 f8 ff             	cmp    $0xffffffff,%eax
  401b23:	74 05                	je     401b2a <Gets+0x3d>
  401b25:	83 f8 0a             	cmp    $0xa,%eax
  401b28:	75 d9                	jne    401b03 <Gets+0x16>
  401b2a:	c6 03 00             	movb   $0x0,(%rbx)
  401b2d:	b8 00 00 00 00       	mov    $0x0,%eax
  401b32:	e8 6e ff ff ff       	callq  401aa5 <save_term>
  401b37:	4c 89 e0             	mov    %r12,%rax
  401b3a:	5b                   	pop    %rbx
  401b3b:	5d                   	pop    %rbp
  401b3c:	41 5c                	pop    %r12
  401b3e:	c3                   	retq   

0000000000401b3f <notify_server>:
  401b3f:	53                   	push   %rbx
  401b40:	48 81 ec 10 40 00 00 	sub    $0x4010,%rsp
  401b47:	64 48 8b 04 25 28 00 	mov    %fs:0x28,%rax
  401b4e:	00 00 
  401b50:	48 89 84 24 08 40 00 	mov    %rax,0x4008(%rsp)
  401b57:	00 
  401b58:	31 c0                	xor    %eax,%eax
  401b5a:	83 3d c7 29 20 00 00 	cmpl   $0x0,0x2029c7(%rip)        # 604528 <is_checker>
  401b61:	0f 85 aa 01 00 00    	jne    401d11 <notify_server+0x1d2>
  401b67:	89 fb                	mov    %edi,%ebx
  401b69:	8b 05 d5 35 20 00    	mov    0x2035d5(%rip),%eax        # 605144 <gets_cnt>
  401b6f:	83 c0 64             	add    $0x64,%eax
  401b72:	3d 00 20 00 00       	cmp    $0x2000,%eax
  401b77:	7e 1e                	jle    401b97 <notify_server+0x58>
  401b79:	be 00 34 40 00       	mov    $0x403400,%esi
  401b7e:	bf 01 00 00 00       	mov    $0x1,%edi
  401b83:	b8 00 00 00 00       	mov    $0x0,%eax
  401b88:	e8 73 f2 ff ff       	callq  400e00 <__printf_chk@plt>
  401b8d:	bf 01 00 00 00       	mov    $0x1,%edi
  401b92:	e8 b9 f2 ff ff       	callq  400e50 <exit@plt>
  401b97:	0f be 05 aa 35 20 00 	movsbl 0x2035aa(%rip),%eax        # 605148 <target_prefix>
  401b9e:	83 3d 03 29 20 00 00 	cmpl   $0x0,0x202903(%rip)        # 6044a8 <notify>
  401ba5:	74 08                	je     401baf <notify_server+0x70>
  401ba7:	8b 15 73 29 20 00    	mov    0x202973(%rip),%edx        # 604520 <authkey>
  401bad:	eb 05                	jmp    401bb4 <notify_server+0x75>
  401baf:	ba ff ff ff ff       	mov    $0xffffffff,%edx
  401bb4:	85 db                	test   %ebx,%ebx
  401bb6:	74 08                	je     401bc0 <notify_server+0x81>
  401bb8:	41 b9 e1 32 40 00    	mov    $0x4032e1,%r9d
  401bbe:	eb 06                	jmp    401bc6 <notify_server+0x87>
  401bc0:	41 b9 e6 32 40 00    	mov    $0x4032e6,%r9d
  401bc6:	68 40 45 60 00       	pushq  $0x604540
  401bcb:	56                   	push   %rsi
  401bcc:	50                   	push   %rax
  401bcd:	52                   	push   %rdx
  401bce:	44 8b 05 93 25 20 00 	mov    0x202593(%rip),%r8d        # 604168 <target_id>
  401bd5:	b9 eb 32 40 00       	mov    $0x4032eb,%ecx
  401bda:	ba 00 20 00 00       	mov    $0x2000,%edx
  401bdf:	be 01 00 00 00       	mov    $0x1,%esi
  401be4:	48 8d 7c 24 20       	lea    0x20(%rsp),%rdi
  401be9:	b8 00 00 00 00       	mov    $0x0,%eax
  401bee:	e8 8d f2 ff ff       	callq  400e80 <__sprintf_chk@plt>
  401bf3:	48 83 c4 20          	add    $0x20,%rsp
  401bf7:	83 3d aa 28 20 00 00 	cmpl   $0x0,0x2028aa(%rip)        # 6044a8 <notify>
  401bfe:	0f 84 81 00 00 00    	je     401c85 <notify_server+0x146>
  401c04:	85 db                	test   %ebx,%ebx
  401c06:	74 6e                	je     401c76 <notify_server+0x137>
  401c08:	4c 8d 8c 24 00 20 00 	lea    0x2000(%rsp),%r9
  401c0f:	00 
  401c10:	41 b8 00 00 00 00    	mov    $0x0,%r8d
  401c16:	48 89 e1             	mov    %rsp,%rcx
  401c19:	48 8b 15 50 25 20 00 	mov    0x202550(%rip),%rdx        # 604170 <lab>
  401c20:	48 8b 35 51 25 20 00 	mov    0x202551(%rip),%rsi        # 604178 <course>
  401c27:	48 8b 3d 32 25 20 00 	mov    0x202532(%rip),%rdi        # 604160 <user_id>
  401c2e:	e8 ef 10 00 00       	callq  402d22 <driver_post>
  401c33:	85 c0                	test   %eax,%eax
  401c35:	79 26                	jns    401c5d <notify_server+0x11e>
  401c37:	48 8d 94 24 00 20 00 	lea    0x2000(%rsp),%rdx
  401c3e:	00 
  401c3f:	be 07 33 40 00       	mov    $0x403307,%esi
  401c44:	bf 01 00 00 00       	mov    $0x1,%edi
  401c49:	b8 00 00 00 00       	mov    $0x0,%eax
  401c4e:	e8 ad f1 ff ff       	callq  400e00 <__printf_chk@plt>
  401c53:	bf 01 00 00 00       	mov    $0x1,%edi
  401c58:	e8 f3 f1 ff ff       	callq  400e50 <exit@plt>
  401c5d:	bf 30 34 40 00       	mov    $0x403430,%edi
  401c62:	e8 69 f0 ff ff       	callq  400cd0 <puts@plt>
  401c67:	bf 13 33 40 00       	mov    $0x403313,%edi
  401c6c:	e8 5f f0 ff ff       	callq  400cd0 <puts@plt>
  401c71:	e9 9b 00 00 00       	jmpq   401d11 <notify_server+0x1d2>
  401c76:	bf 1d 33 40 00       	mov    $0x40331d,%edi
  401c7b:	e8 50 f0 ff ff       	callq  400cd0 <puts@plt>
  401c80:	e9 8c 00 00 00       	jmpq   401d11 <notify_server+0x1d2>
  401c85:	85 db                	test   %ebx,%ebx
  401c87:	74 07                	je     401c90 <notify_server+0x151>
  401c89:	ba e1 32 40 00       	mov    $0x4032e1,%edx
  401c8e:	eb 05                	jmp    401c95 <notify_server+0x156>
  401c90:	ba e6 32 40 00       	mov    $0x4032e6,%edx
  401c95:	be 68 34 40 00       	mov    $0x403468,%esi
  401c9a:	bf 01 00 00 00       	mov    $0x1,%edi
  401c9f:	b8 00 00 00 00       	mov    $0x0,%eax
  401ca4:	e8 57 f1 ff ff       	callq  400e00 <__printf_chk@plt>
  401ca9:	48 8b 15 b0 24 20 00 	mov    0x2024b0(%rip),%rdx        # 604160 <user_id>
  401cb0:	be 24 33 40 00       	mov    $0x403324,%esi
  401cb5:	bf 01 00 00 00       	mov    $0x1,%edi
  401cba:	b8 00 00 00 00       	mov    $0x0,%eax
  401cbf:	e8 3c f1 ff ff       	callq  400e00 <__printf_chk@plt>
  401cc4:	48 8b 15 ad 24 20 00 	mov    0x2024ad(%rip),%rdx        # 604178 <course>
  401ccb:	be 31 33 40 00       	mov    $0x403331,%esi
  401cd0:	bf 01 00 00 00       	mov    $0x1,%edi
  401cd5:	b8 00 00 00 00       	mov    $0x0,%eax
  401cda:	e8 21 f1 ff ff       	callq  400e00 <__printf_chk@plt>
  401cdf:	48 8b 15 8a 24 20 00 	mov    0x20248a(%rip),%rdx        # 604170 <lab>
  401ce6:	be 3d 33 40 00       	mov    $0x40333d,%esi
  401ceb:	bf 01 00 00 00       	mov    $0x1,%edi
  401cf0:	b8 00 00 00 00       	mov    $0x0,%eax
  401cf5:	e8 06 f1 ff ff       	callq  400e00 <__printf_chk@plt>
  401cfa:	48 89 e2             	mov    %rsp,%rdx
  401cfd:	be 46 33 40 00       	mov    $0x403346,%esi
  401d02:	bf 01 00 00 00       	mov    $0x1,%edi
  401d07:	b8 00 00 00 00       	mov    $0x0,%eax
  401d0c:	e8 ef f0 ff ff       	callq  400e00 <__printf_chk@plt>
  401d11:	48 8b 84 24 08 40 00 	mov    0x4008(%rsp),%rax
  401d18:	00 
  401d19:	64 48 33 04 25 28 00 	xor    %fs:0x28,%rax
  401d20:	00 00 
  401d22:	74 05                	je     401d29 <notify_server+0x1ea>
  401d24:	e8 c7 ef ff ff       	callq  400cf0 <__stack_chk_fail@plt>
  401d29:	48 81 c4 10 40 00 00 	add    $0x4010,%rsp
  401d30:	5b                   	pop    %rbx
  401d31:	c3                   	retq   

0000000000401d32 <validate>:
  401d32:	53                   	push   %rbx
  401d33:	89 fb                	mov    %edi,%ebx
  401d35:	83 3d ec 27 20 00 00 	cmpl   $0x0,0x2027ec(%rip)        # 604528 <is_checker>
  401d3c:	74 6b                	je     401da9 <validate+0x77>
  401d3e:	39 3d d8 27 20 00    	cmp    %edi,0x2027d8(%rip)        # 60451c <vlevel>
  401d44:	74 14                	je     401d5a <validate+0x28>
  401d46:	bf 52 33 40 00       	mov    $0x403352,%edi
  401d4b:	e8 80 ef ff ff       	callq  400cd0 <puts@plt>
  401d50:	b8 00 00 00 00       	mov    $0x0,%eax
  401d55:	e8 5e fd ff ff       	callq  401ab8 <check_fail>
  401d5a:	8b 15 b8 27 20 00    	mov    0x2027b8(%rip),%edx        # 604518 <check_level>
  401d60:	39 d7                	cmp    %edx,%edi
  401d62:	74 20                	je     401d84 <validate+0x52>
  401d64:	89 f9                	mov    %edi,%ecx
  401d66:	be 90 34 40 00       	mov    $0x403490,%esi
  401d6b:	bf 01 00 00 00       	mov    $0x1,%edi
  401d70:	b8 00 00 00 00       	mov    $0x0,%eax
  401d75:	e8 86 f0 ff ff       	callq  400e00 <__printf_chk@plt>
  401d7a:	b8 00 00 00 00       	mov    $0x0,%eax
  401d7f:	e8 34 fd ff ff       	callq  401ab8 <check_fail>
  401d84:	0f be 15 bd 33 20 00 	movsbl 0x2033bd(%rip),%edx        # 605148 <target_prefix>
  401d8b:	41 b8 40 45 60 00    	mov    $0x604540,%r8d
  401d91:	89 f9                	mov    %edi,%ecx
  401d93:	be 70 33 40 00       	mov    $0x403370,%esi
  401d98:	bf 01 00 00 00       	mov    $0x1,%edi
  401d9d:	b8 00 00 00 00       	mov    $0x0,%eax
  401da2:	e8 59 f0 ff ff       	callq  400e00 <__printf_chk@plt>
  401da7:	eb 49                	jmp    401df2 <validate+0xc0>
  401da9:	3b 3d 6d 27 20 00    	cmp    0x20276d(%rip),%edi        # 60451c <vlevel>
  401daf:	74 18                	je     401dc9 <validate+0x97>
  401db1:	bf 52 33 40 00       	mov    $0x403352,%edi
  401db6:	e8 15 ef ff ff       	callq  400cd0 <puts@plt>
  401dbb:	89 de                	mov    %ebx,%esi
  401dbd:	bf 00 00 00 00       	mov    $0x0,%edi
  401dc2:	e8 78 fd ff ff       	callq  401b3f <notify_server>
  401dc7:	eb 29                	jmp    401df2 <validate+0xc0>
  401dc9:	0f be 0d 78 33 20 00 	movsbl 0x203378(%rip),%ecx        # 605148 <target_prefix>
  401dd0:	89 fa                	mov    %edi,%edx
  401dd2:	be b8 34 40 00       	mov    $0x4034b8,%esi
  401dd7:	bf 01 00 00 00       	mov    $0x1,%edi
  401ddc:	b8 00 00 00 00       	mov    $0x0,%eax
  401de1:	e8 1a f0 ff ff       	callq  400e00 <__printf_chk@plt>
  401de6:	89 de                	mov    %ebx,%esi
  401de8:	bf 01 00 00 00       	mov    $0x1,%edi
  401ded:	e8 4d fd ff ff       	callq  401b3f <notify_server>
  401df2:	5b                   	pop    %rbx
  401df3:	c3                   	retq   

0000000000401df4 <fail>:
  401df4:	48 83 ec 08          	sub    $0x8,%rsp
  401df8:	83 3d 29 27 20 00 00 	cmpl   $0x0,0x202729(%rip)        # 604528 <is_checker>
  401dff:	74 0a                	je     401e0b <fail+0x17>
  401e01:	b8 00 00 00 00       	mov    $0x0,%eax
  401e06:	e8 ad fc ff ff       	callq  401ab8 <check_fail>
  401e0b:	89 fe                	mov    %edi,%esi
  401e0d:	bf 00 00 00 00       	mov    $0x0,%edi
  401e12:	e8 28 fd ff ff       	callq  401b3f <notify_server>
  401e17:	48 83 c4 08          	add    $0x8,%rsp
  401e1b:	c3                   	retq   

0000000000401e1c <bushandler>:
  401e1c:	48 83 ec 08          	sub    $0x8,%rsp
  401e20:	83 3d 01 27 20 00 00 	cmpl   $0x0,0x202701(%rip)        # 604528 <is_checker>
  401e27:	74 14                	je     401e3d <bushandler+0x21>
  401e29:	bf 85 33 40 00       	mov    $0x403385,%edi
  401e2e:	e8 9d ee ff ff       	callq  400cd0 <puts@plt>
  401e33:	b8 00 00 00 00       	mov    $0x0,%eax
  401e38:	e8 7b fc ff ff       	callq  401ab8 <check_fail>
  401e3d:	bf f0 34 40 00       	mov    $0x4034f0,%edi
  401e42:	e8 89 ee ff ff       	callq  400cd0 <puts@plt>
  401e47:	bf 8f 33 40 00       	mov    $0x40338f,%edi
  401e4c:	e8 7f ee ff ff       	callq  400cd0 <puts@plt>
  401e51:	be 00 00 00 00       	mov    $0x0,%esi
  401e56:	bf 00 00 00 00       	mov    $0x0,%edi
  401e5b:	e8 df fc ff ff       	callq  401b3f <notify_server>
  401e60:	bf 01 00 00 00       	mov    $0x1,%edi
  401e65:	e8 e6 ef ff ff       	callq  400e50 <exit@plt>

0000000000401e6a <seghandler>:
  401e6a:	48 83 ec 08          	sub    $0x8,%rsp
  401e6e:	83 3d b3 26 20 00 00 	cmpl   $0x0,0x2026b3(%rip)        # 604528 <is_checker>
  401e75:	74 14                	je     401e8b <seghandler+0x21>
  401e77:	bf a5 33 40 00       	mov    $0x4033a5,%edi
  401e7c:	e8 4f ee ff ff       	callq  400cd0 <puts@plt>
  401e81:	b8 00 00 00 00       	mov    $0x0,%eax
  401e86:	e8 2d fc ff ff       	callq  401ab8 <check_fail>
  401e8b:	bf 10 35 40 00       	mov    $0x403510,%edi
  401e90:	e8 3b ee ff ff       	callq  400cd0 <puts@plt>
  401e95:	bf 8f 33 40 00       	mov    $0x40338f,%edi
  401e9a:	e8 31 ee ff ff       	callq  400cd0 <puts@plt>
  401e9f:	be 00 00 00 00       	mov    $0x0,%esi
  401ea4:	bf 00 00 00 00       	mov    $0x0,%edi
  401ea9:	e8 91 fc ff ff       	callq  401b3f <notify_server>
  401eae:	bf 01 00 00 00       	mov    $0x1,%edi
  401eb3:	e8 98 ef ff ff       	callq  400e50 <exit@plt>

0000000000401eb8 <illegalhandler>:
  401eb8:	48 83 ec 08          	sub    $0x8,%rsp
  401ebc:	83 3d 65 26 20 00 00 	cmpl   $0x0,0x202665(%rip)        # 604528 <is_checker>
  401ec3:	74 14                	je     401ed9 <illegalhandler+0x21>
  401ec5:	bf b8 33 40 00       	mov    $0x4033b8,%edi
  401eca:	e8 01 ee ff ff       	callq  400cd0 <puts@plt>
  401ecf:	b8 00 00 00 00       	mov    $0x0,%eax
  401ed4:	e8 df fb ff ff       	callq  401ab8 <check_fail>
  401ed9:	bf 38 35 40 00       	mov    $0x403538,%edi
  401ede:	e8 ed ed ff ff       	callq  400cd0 <puts@plt>
  401ee3:	bf 8f 33 40 00       	mov    $0x40338f,%edi
  401ee8:	e8 e3 ed ff ff       	callq  400cd0 <puts@plt>
  401eed:	be 00 00 00 00       	mov    $0x0,%esi
  401ef2:	bf 00 00 00 00       	mov    $0x0,%edi
  401ef7:	e8 43 fc ff ff       	callq  401b3f <notify_server>
  401efc:	bf 01 00 00 00       	mov    $0x1,%edi
  401f01:	e8 4a ef ff ff       	callq  400e50 <exit@plt>

0000000000401f06 <sigalrmhandler>:
  401f06:	48 83 ec 08          	sub    $0x8,%rsp
  401f0a:	83 3d 17 26 20 00 00 	cmpl   $0x0,0x202617(%rip)        # 604528 <is_checker>
  401f11:	74 14                	je     401f27 <sigalrmhandler+0x21>
  401f13:	bf cc 33 40 00       	mov    $0x4033cc,%edi
  401f18:	e8 b3 ed ff ff       	callq  400cd0 <puts@plt>
  401f1d:	b8 00 00 00 00       	mov    $0x0,%eax
  401f22:	e8 91 fb ff ff       	callq  401ab8 <check_fail>
  401f27:	ba 05 00 00 00       	mov    $0x5,%edx
  401f2c:	be 68 35 40 00       	mov    $0x403568,%esi
  401f31:	bf 01 00 00 00       	mov    $0x1,%edi
  401f36:	b8 00 00 00 00       	mov    $0x0,%eax
  401f3b:	e8 c0 ee ff ff       	callq  400e00 <__printf_chk@plt>
  401f40:	be 00 00 00 00       	mov    $0x0,%esi
  401f45:	bf 00 00 00 00       	mov    $0x0,%edi
  401f4a:	e8 f0 fb ff ff       	callq  401b3f <notify_server>
  401f4f:	bf 01 00 00 00       	mov    $0x1,%edi
  401f54:	e8 f7 ee ff ff       	callq  400e50 <exit@plt>

0000000000401f59 <launch>:
  401f59:	55                   	push   %rbp
  401f5a:	48 89 e5             	mov    %rsp,%rbp
  401f5d:	48 83 ec 10          	sub    $0x10,%rsp
  401f61:	48 89 fa             	mov    %rdi,%rdx
  401f64:	64 48 8b 04 25 28 00 	mov    %fs:0x28,%rax
  401f6b:	00 00 
  401f6d:	48 89 45 f8          	mov    %rax,-0x8(%rbp)
  401f71:	31 c0                	xor    %eax,%eax
  401f73:	48 8d 47 1e          	lea    0x1e(%rdi),%rax
  401f77:	48 83 e0 f0          	and    $0xfffffffffffffff0,%rax
  401f7b:	48 29 c4             	sub    %rax,%rsp
  401f7e:	48 8d 7c 24 0f       	lea    0xf(%rsp),%rdi
  401f83:	48 83 e7 f0          	and    $0xfffffffffffffff0,%rdi
  401f87:	be f4 00 00 00       	mov    $0xf4,%esi
  401f8c:	e8 7f ed ff ff       	callq  400d10 <memset@plt>
  401f91:	48 8b 05 28 25 20 00 	mov    0x202528(%rip),%rax        # 6044c0 <stdin@@GLIBC_2.2.5>
  401f98:	48 39 05 71 25 20 00 	cmp    %rax,0x202571(%rip)        # 604510 <infile>
  401f9f:	75 14                	jne    401fb5 <launch+0x5c>
  401fa1:	be d4 33 40 00       	mov    $0x4033d4,%esi
  401fa6:	bf 01 00 00 00       	mov    $0x1,%edi
  401fab:	b8 00 00 00 00       	mov    $0x0,%eax
  401fb0:	e8 4b ee ff ff       	callq  400e00 <__printf_chk@plt>
  401fb5:	c7 05 5d 25 20 00 00 	movl   $0x0,0x20255d(%rip)        # 60451c <vlevel>
  401fbc:	00 00 00 
  401fbf:	b8 00 00 00 00       	mov    $0x0,%eax
  401fc4:	e8 5b fa ff ff       	callq  401a24 <test>
  401fc9:	83 3d 58 25 20 00 00 	cmpl   $0x0,0x202558(%rip)        # 604528 <is_checker>
  401fd0:	74 14                	je     401fe6 <launch+0x8d>
  401fd2:	bf e1 33 40 00       	mov    $0x4033e1,%edi
  401fd7:	e8 f4 ec ff ff       	callq  400cd0 <puts@plt>
  401fdc:	b8 00 00 00 00       	mov    $0x0,%eax
  401fe1:	e8 d2 fa ff ff       	callq  401ab8 <check_fail>
  401fe6:	bf ec 33 40 00       	mov    $0x4033ec,%edi
  401feb:	e8 e0 ec ff ff       	callq  400cd0 <puts@plt>
  401ff0:	48 8b 45 f8          	mov    -0x8(%rbp),%rax
  401ff4:	64 48 33 04 25 28 00 	xor    %fs:0x28,%rax
  401ffb:	00 00 
  401ffd:	74 05                	je     402004 <launch+0xab>
  401fff:	e8 ec ec ff ff       	callq  400cf0 <__stack_chk_fail@plt>
  402004:	c9                   	leaveq 
  402005:	c3                   	retq   

0000000000402006 <stable_launch>:
  402006:	53                   	push   %rbx
  402007:	48 89 3d fa 24 20 00 	mov    %rdi,0x2024fa(%rip)        # 604508 <global_offset>
  40200e:	41 b9 00 00 00 00    	mov    $0x0,%r9d
  402014:	41 b8 00 00 00 00    	mov    $0x0,%r8d
  40201a:	b9 32 01 00 00       	mov    $0x132,%ecx
  40201f:	ba 07 00 00 00       	mov    $0x7,%edx
  402024:	be 00 00 10 00       	mov    $0x100000,%esi
  402029:	bf 00 60 58 55       	mov    $0x55586000,%edi
  40202e:	e8 cd ec ff ff       	callq  400d00 <mmap@plt>
  402033:	48 89 c3             	mov    %rax,%rbx
  402036:	48 3d 00 60 58 55    	cmp    $0x55586000,%rax
  40203c:	74 37                	je     402075 <stable_launch+0x6f>
  40203e:	be 00 00 10 00       	mov    $0x100000,%esi
  402043:	48 89 c7             	mov    %rax,%rdi
  402046:	e8 a5 ed ff ff       	callq  400df0 <munmap@plt>
  40204b:	b9 00 60 58 55       	mov    $0x55586000,%ecx
  402050:	ba a0 35 40 00       	mov    $0x4035a0,%edx
  402055:	be 01 00 00 00       	mov    $0x1,%esi
  40205a:	48 8b 3d 7f 24 20 00 	mov    0x20247f(%rip),%rdi        # 6044e0 <stderr@@GLIBC_2.2.5>
  402061:	b8 00 00 00 00       	mov    $0x0,%eax
  402066:	e8 05 ee ff ff       	callq  400e70 <__fprintf_chk@plt>
  40206b:	bf 01 00 00 00       	mov    $0x1,%edi
  402070:	e8 db ed ff ff       	callq  400e50 <exit@plt>
  402075:	48 8d 90 f8 ff 0f 00 	lea    0xffff8(%rax),%rdx
  40207c:	48 89 15 cd 30 20 00 	mov    %rdx,0x2030cd(%rip)        # 605150 <stack_top>
  402083:	48 89 e0             	mov    %rsp,%rax
  402086:	48 89 d4             	mov    %rdx,%rsp
  402089:	48 89 c2             	mov    %rax,%rdx
  40208c:	48 89 15 6d 24 20 00 	mov    %rdx,0x20246d(%rip)        # 604500 <global_save_stack>
  402093:	48 8b 3d 6e 24 20 00 	mov    0x20246e(%rip),%rdi        # 604508 <global_offset>
  40209a:	e8 ba fe ff ff       	callq  401f59 <launch>
  40209f:	48 8b 05 5a 24 20 00 	mov    0x20245a(%rip),%rax        # 604500 <global_save_stack>
  4020a6:	48 89 c4             	mov    %rax,%rsp
  4020a9:	be 00 00 10 00       	mov    $0x100000,%esi
  4020ae:	48 89 df             	mov    %rbx,%rdi
  4020b1:	e8 3a ed ff ff       	callq  400df0 <munmap@plt>
  4020b6:	5b                   	pop    %rbx
  4020b7:	c3                   	retq   

00000000004020b8 <rio_readinitb>:
  4020b8:	89 37                	mov    %esi,(%rdi)
  4020ba:	c7 47 04 00 00 00 00 	movl   $0x0,0x4(%rdi)
  4020c1:	48 8d 47 10          	lea    0x10(%rdi),%rax
  4020c5:	48 89 47 08          	mov    %rax,0x8(%rdi)
  4020c9:	c3                   	retq   

00000000004020ca <sigalrm_handler>:
  4020ca:	48 83 ec 08          	sub    $0x8,%rsp
  4020ce:	b9 00 00 00 00       	mov    $0x0,%ecx
  4020d3:	ba e0 35 40 00       	mov    $0x4035e0,%edx
  4020d8:	be 01 00 00 00       	mov    $0x1,%esi
  4020dd:	48 8b 3d fc 23 20 00 	mov    0x2023fc(%rip),%rdi        # 6044e0 <stderr@@GLIBC_2.2.5>
  4020e4:	b8 00 00 00 00       	mov    $0x0,%eax
  4020e9:	e8 82 ed ff ff       	callq  400e70 <__fprintf_chk@plt>
  4020ee:	bf 01 00 00 00       	mov    $0x1,%edi
  4020f3:	e8 58 ed ff ff       	callq  400e50 <exit@plt>

00000000004020f8 <rio_writen>:
  4020f8:	41 55                	push   %r13
  4020fa:	41 54                	push   %r12
  4020fc:	55                   	push   %rbp
  4020fd:	53                   	push   %rbx
  4020fe:	48 83 ec 08          	sub    $0x8,%rsp
  402102:	41 89 fc             	mov    %edi,%r12d
  402105:	48 89 f5             	mov    %rsi,%rbp
  402108:	49 89 d5             	mov    %rdx,%r13
  40210b:	48 89 d3             	mov    %rdx,%rbx
  40210e:	eb 28                	jmp    402138 <rio_writen+0x40>
  402110:	48 89 da             	mov    %rbx,%rdx
  402113:	48 89 ee             	mov    %rbp,%rsi
  402116:	44 89 e7             	mov    %r12d,%edi
  402119:	e8 c2 eb ff ff       	callq  400ce0 <write@plt>
  40211e:	48 85 c0             	test   %rax,%rax
  402121:	7f 0f                	jg     402132 <rio_writen+0x3a>
  402123:	e8 68 eb ff ff       	callq  400c90 <__errno_location@plt>
  402128:	83 38 04             	cmpl   $0x4,(%rax)
  40212b:	75 15                	jne    402142 <rio_writen+0x4a>
  40212d:	b8 00 00 00 00       	mov    $0x0,%eax
  402132:	48 29 c3             	sub    %rax,%rbx
  402135:	48 01 c5             	add    %rax,%rbp
  402138:	48 85 db             	test   %rbx,%rbx
  40213b:	75 d3                	jne    402110 <rio_writen+0x18>
  40213d:	4c 89 e8             	mov    %r13,%rax
  402140:	eb 07                	jmp    402149 <rio_writen+0x51>
  402142:	48 c7 c0 ff ff ff ff 	mov    $0xffffffffffffffff,%rax
  402149:	48 83 c4 08          	add    $0x8,%rsp
  40214d:	5b                   	pop    %rbx
  40214e:	5d                   	pop    %rbp
  40214f:	41 5c                	pop    %r12
  402151:	41 5d                	pop    %r13
  402153:	c3                   	retq   

0000000000402154 <rio_read>:
  402154:	41 55                	push   %r13
  402156:	41 54                	push   %r12
  402158:	55                   	push   %rbp
  402159:	53                   	push   %rbx
  40215a:	48 83 ec 08          	sub    $0x8,%rsp
  40215e:	48 89 fb             	mov    %rdi,%rbx
  402161:	49 89 f5             	mov    %rsi,%r13
  402164:	49 89 d4             	mov    %rdx,%r12
  402167:	eb 2e                	jmp    402197 <rio_read+0x43>
  402169:	48 8d 6b 10          	lea    0x10(%rbx),%rbp
  40216d:	8b 3b                	mov    (%rbx),%edi
  40216f:	ba 00 20 00 00       	mov    $0x2000,%edx
  402174:	48 89 ee             	mov    %rbp,%rsi
  402177:	e8 c4 eb ff ff       	callq  400d40 <read@plt>
  40217c:	89 43 04             	mov    %eax,0x4(%rbx)
  40217f:	85 c0                	test   %eax,%eax
  402181:	79 0c                	jns    40218f <rio_read+0x3b>
  402183:	e8 08 eb ff ff       	callq  400c90 <__errno_location@plt>
  402188:	83 38 04             	cmpl   $0x4,(%rax)
  40218b:	74 0a                	je     402197 <rio_read+0x43>
  40218d:	eb 37                	jmp    4021c6 <rio_read+0x72>
  40218f:	85 c0                	test   %eax,%eax
  402191:	74 3c                	je     4021cf <rio_read+0x7b>
  402193:	48 89 6b 08          	mov    %rbp,0x8(%rbx)
  402197:	8b 6b 04             	mov    0x4(%rbx),%ebp
  40219a:	85 ed                	test   %ebp,%ebp
  40219c:	7e cb                	jle    402169 <rio_read+0x15>
  40219e:	89 e8                	mov    %ebp,%eax
  4021a0:	49 39 c4             	cmp    %rax,%r12
  4021a3:	77 03                	ja     4021a8 <rio_read+0x54>
  4021a5:	44 89 e5             	mov    %r12d,%ebp
  4021a8:	4c 63 e5             	movslq %ebp,%r12
  4021ab:	48 8b 73 08          	mov    0x8(%rbx),%rsi
  4021af:	4c 89 e2             	mov    %r12,%rdx
  4021b2:	4c 89 ef             	mov    %r13,%rdi
  4021b5:	e8 e6 eb ff ff       	callq  400da0 <memcpy@plt>
  4021ba:	4c 01 63 08          	add    %r12,0x8(%rbx)
  4021be:	29 6b 04             	sub    %ebp,0x4(%rbx)
  4021c1:	4c 89 e0             	mov    %r12,%rax
  4021c4:	eb 0e                	jmp    4021d4 <rio_read+0x80>
  4021c6:	48 c7 c0 ff ff ff ff 	mov    $0xffffffffffffffff,%rax
  4021cd:	eb 05                	jmp    4021d4 <rio_read+0x80>
  4021cf:	b8 00 00 00 00       	mov    $0x0,%eax
  4021d4:	48 83 c4 08          	add    $0x8,%rsp
  4021d8:	5b                   	pop    %rbx
  4021d9:	5d                   	pop    %rbp
  4021da:	41 5c                	pop    %r12
  4021dc:	41 5d                	pop    %r13
  4021de:	c3                   	retq   

00000000004021df <rio_readlineb>:
  4021df:	41 55                	push   %r13
  4021e1:	41 54                	push   %r12
  4021e3:	55                   	push   %rbp
  4021e4:	53                   	push   %rbx
  4021e5:	48 83 ec 18          	sub    $0x18,%rsp
  4021e9:	49 89 fd             	mov    %rdi,%r13
  4021ec:	48 89 f5             	mov    %rsi,%rbp
  4021ef:	49 89 d4             	mov    %rdx,%r12
  4021f2:	64 48 8b 04 25 28 00 	mov    %fs:0x28,%rax
  4021f9:	00 00 
  4021fb:	48 89 44 24 08       	mov    %rax,0x8(%rsp)
  402200:	31 c0                	xor    %eax,%eax
  402202:	bb 01 00 00 00       	mov    $0x1,%ebx
  402207:	eb 3f                	jmp    402248 <rio_readlineb+0x69>
  402209:	ba 01 00 00 00       	mov    $0x1,%edx
  40220e:	48 8d 74 24 07       	lea    0x7(%rsp),%rsi
  402213:	4c 89 ef             	mov    %r13,%rdi
  402216:	e8 39 ff ff ff       	callq  402154 <rio_read>
  40221b:	83 f8 01             	cmp    $0x1,%eax
  40221e:	75 15                	jne    402235 <rio_readlineb+0x56>
  402220:	48 8d 45 01          	lea    0x1(%rbp),%rax
  402224:	0f b6 54 24 07       	movzbl 0x7(%rsp),%edx
  402229:	88 55 00             	mov    %dl,0x0(%rbp)
  40222c:	80 7c 24 07 0a       	cmpb   $0xa,0x7(%rsp)
  402231:	75 0e                	jne    402241 <rio_readlineb+0x62>
  402233:	eb 1a                	jmp    40224f <rio_readlineb+0x70>
  402235:	85 c0                	test   %eax,%eax
  402237:	75 22                	jne    40225b <rio_readlineb+0x7c>
  402239:	48 83 fb 01          	cmp    $0x1,%rbx
  40223d:	75 13                	jne    402252 <rio_readlineb+0x73>
  40223f:	eb 23                	jmp    402264 <rio_readlineb+0x85>
  402241:	48 83 c3 01          	add    $0x1,%rbx
  402245:	48 89 c5             	mov    %rax,%rbp
  402248:	4c 39 e3             	cmp    %r12,%rbx
  40224b:	72 bc                	jb     402209 <rio_readlineb+0x2a>
  40224d:	eb 03                	jmp    402252 <rio_readlineb+0x73>
  40224f:	48 89 c5             	mov    %rax,%rbp
  402252:	c6 45 00 00          	movb   $0x0,0x0(%rbp)
  402256:	48 89 d8             	mov    %rbx,%rax
  402259:	eb 0e                	jmp    402269 <rio_readlineb+0x8a>
  40225b:	48 c7 c0 ff ff ff ff 	mov    $0xffffffffffffffff,%rax
  402262:	eb 05                	jmp    402269 <rio_readlineb+0x8a>
  402264:	b8 00 00 00 00       	mov    $0x0,%eax
  402269:	48 8b 4c 24 08       	mov    0x8(%rsp),%rcx
  40226e:	64 48 33 0c 25 28 00 	xor    %fs:0x28,%rcx
  402275:	00 00 
  402277:	74 05                	je     40227e <rio_readlineb+0x9f>
  402279:	e8 72 ea ff ff       	callq  400cf0 <__stack_chk_fail@plt>
  40227e:	48 83 c4 18          	add    $0x18,%rsp
  402282:	5b                   	pop    %rbx
  402283:	5d                   	pop    %rbp
  402284:	41 5c                	pop    %r12
  402286:	41 5d                	pop    %r13
  402288:	c3                   	retq   

0000000000402289 <urlencode>:
  402289:	41 54                	push   %r12
  40228b:	55                   	push   %rbp
  40228c:	53                   	push   %rbx
  40228d:	48 83 ec 10          	sub    $0x10,%rsp
  402291:	48 89 fb             	mov    %rdi,%rbx
  402294:	48 89 f5             	mov    %rsi,%rbp
  402297:	64 48 8b 04 25 28 00 	mov    %fs:0x28,%rax
  40229e:	00 00 
  4022a0:	48 89 44 24 08       	mov    %rax,0x8(%rsp)
  4022a5:	31 c0                	xor    %eax,%eax
  4022a7:	48 c7 c1 ff ff ff ff 	mov    $0xffffffffffffffff,%rcx
  4022ae:	f2 ae                	repnz scas %es:(%rdi),%al
  4022b0:	48 f7 d1             	not    %rcx
  4022b3:	8d 41 ff             	lea    -0x1(%rcx),%eax
  4022b6:	e9 aa 00 00 00       	jmpq   402365 <urlencode+0xdc>
  4022bb:	44 0f b6 03          	movzbl (%rbx),%r8d
  4022bf:	41 80 f8 2a          	cmp    $0x2a,%r8b
  4022c3:	0f 94 c2             	sete   %dl
  4022c6:	41 80 f8 2d          	cmp    $0x2d,%r8b
  4022ca:	0f 94 c0             	sete   %al
  4022cd:	08 c2                	or     %al,%dl
  4022cf:	75 24                	jne    4022f5 <urlencode+0x6c>
  4022d1:	41 80 f8 2e          	cmp    $0x2e,%r8b
  4022d5:	74 1e                	je     4022f5 <urlencode+0x6c>
  4022d7:	41 80 f8 5f          	cmp    $0x5f,%r8b
  4022db:	74 18                	je     4022f5 <urlencode+0x6c>
  4022dd:	41 8d 40 d0          	lea    -0x30(%r8),%eax
  4022e1:	3c 09                	cmp    $0x9,%al
  4022e3:	76 10                	jbe    4022f5 <urlencode+0x6c>
  4022e5:	41 8d 40 bf          	lea    -0x41(%r8),%eax
  4022e9:	3c 19                	cmp    $0x19,%al
  4022eb:	76 08                	jbe    4022f5 <urlencode+0x6c>
  4022ed:	41 8d 40 9f          	lea    -0x61(%r8),%eax
  4022f1:	3c 19                	cmp    $0x19,%al
  4022f3:	77 0a                	ja     4022ff <urlencode+0x76>
  4022f5:	44 88 45 00          	mov    %r8b,0x0(%rbp)
  4022f9:	48 8d 6d 01          	lea    0x1(%rbp),%rbp
  4022fd:	eb 5f                	jmp    40235e <urlencode+0xd5>
  4022ff:	41 80 f8 20          	cmp    $0x20,%r8b
  402303:	75 0a                	jne    40230f <urlencode+0x86>
  402305:	c6 45 00 2b          	movb   $0x2b,0x0(%rbp)
  402309:	48 8d 6d 01          	lea    0x1(%rbp),%rbp
  40230d:	eb 4f                	jmp    40235e <urlencode+0xd5>
  40230f:	41 8d 40 e0          	lea    -0x20(%r8),%eax
  402313:	3c 5f                	cmp    $0x5f,%al
  402315:	0f 96 c2             	setbe  %dl
  402318:	41 80 f8 09          	cmp    $0x9,%r8b
  40231c:	0f 94 c0             	sete   %al
  40231f:	08 c2                	or     %al,%dl
  402321:	74 50                	je     402373 <urlencode+0xea>
  402323:	45 0f b6 c0          	movzbl %r8b,%r8d
  402327:	b9 78 36 40 00       	mov    $0x403678,%ecx
  40232c:	ba 08 00 00 00       	mov    $0x8,%edx
  402331:	be 01 00 00 00       	mov    $0x1,%esi
  402336:	48 89 e7             	mov    %rsp,%rdi
  402339:	b8 00 00 00 00       	mov    $0x0,%eax
  40233e:	e8 3d eb ff ff       	callq  400e80 <__sprintf_chk@plt>
  402343:	0f b6 04 24          	movzbl (%rsp),%eax
  402347:	88 45 00             	mov    %al,0x0(%rbp)
  40234a:	0f b6 44 24 01       	movzbl 0x1(%rsp),%eax
  40234f:	88 45 01             	mov    %al,0x1(%rbp)
  402352:	0f b6 44 24 02       	movzbl 0x2(%rsp),%eax
  402357:	88 45 02             	mov    %al,0x2(%rbp)
  40235a:	48 8d 6d 03          	lea    0x3(%rbp),%rbp
  40235e:	48 83 c3 01          	add    $0x1,%rbx
  402362:	44 89 e0             	mov    %r12d,%eax
  402365:	44 8d 60 ff          	lea    -0x1(%rax),%r12d
  402369:	85 c0                	test   %eax,%eax
  40236b:	0f 85 4a ff ff ff    	jne    4022bb <urlencode+0x32>
  402371:	eb 05                	jmp    402378 <urlencode+0xef>
  402373:	b8 ff ff ff ff       	mov    $0xffffffff,%eax
  402378:	48 8b 74 24 08       	mov    0x8(%rsp),%rsi
  40237d:	64 48 33 34 25 28 00 	xor    %fs:0x28,%rsi
  402384:	00 00 
  402386:	74 05                	je     40238d <urlencode+0x104>
  402388:	e8 63 e9 ff ff       	callq  400cf0 <__stack_chk_fail@plt>
  40238d:	48 83 c4 10          	add    $0x10,%rsp
  402391:	5b                   	pop    %rbx
  402392:	5d                   	pop    %rbp
  402393:	41 5c                	pop    %r12
  402395:	c3                   	retq   

0000000000402396 <submitr>:
  402396:	41 57                	push   %r15
  402398:	41 56                	push   %r14
  40239a:	41 55                	push   %r13
  40239c:	41 54                	push   %r12
  40239e:	55                   	push   %rbp
  40239f:	53                   	push   %rbx
  4023a0:	48 81 ec 58 a0 00 00 	sub    $0xa058,%rsp
  4023a7:	49 89 fc             	mov    %rdi,%r12
  4023aa:	89 74 24 04          	mov    %esi,0x4(%rsp)
  4023ae:	49 89 d7             	mov    %rdx,%r15
  4023b1:	49 89 ce             	mov    %rcx,%r14
  4023b4:	4c 89 44 24 08       	mov    %r8,0x8(%rsp)
  4023b9:	4d 89 cd             	mov    %r9,%r13
  4023bc:	48 8b 9c 24 90 a0 00 	mov    0xa090(%rsp),%rbx
  4023c3:	00 
  4023c4:	64 48 8b 04 25 28 00 	mov    %fs:0x28,%rax
  4023cb:	00 00 
  4023cd:	48 89 84 24 48 a0 00 	mov    %rax,0xa048(%rsp)
  4023d4:	00 
  4023d5:	31 c0                	xor    %eax,%eax
  4023d7:	c7 44 24 1c 00 00 00 	movl   $0x0,0x1c(%rsp)
  4023de:	00 
  4023df:	ba 00 00 00 00       	mov    $0x0,%edx
  4023e4:	be 01 00 00 00       	mov    $0x1,%esi
  4023e9:	bf 02 00 00 00       	mov    $0x2,%edi
  4023ee:	e8 9d ea ff ff       	callq  400e90 <socket@plt>
  4023f3:	85 c0                	test   %eax,%eax
  4023f5:	79 4e                	jns    402445 <submitr+0xaf>
  4023f7:	48 b8 45 72 72 6f 72 	movabs $0x43203a726f727245,%rax
  4023fe:	3a 20 43 
  402401:	48 89 03             	mov    %rax,(%rbx)
  402404:	48 b8 6c 69 65 6e 74 	movabs $0x6e7520746e65696c,%rax
  40240b:	20 75 6e 
  40240e:	48 89 43 08          	mov    %rax,0x8(%rbx)
  402412:	48 b8 61 62 6c 65 20 	movabs $0x206f7420656c6261,%rax
  402419:	74 6f 20 
  40241c:	48 89 43 10          	mov    %rax,0x10(%rbx)
  402420:	48 b8 63 72 65 61 74 	movabs $0x7320657461657263,%rax
  402427:	65 20 73 
  40242a:	48 89 43 18          	mov    %rax,0x18(%rbx)
  40242e:	c7 43 20 6f 63 6b 65 	movl   $0x656b636f,0x20(%rbx)
  402435:	66 c7 43 24 74 00    	movw   $0x74,0x24(%rbx)
  40243b:	b8 ff ff ff ff       	mov    $0xffffffff,%eax
  402440:	e9 97 06 00 00       	jmpq   402adc <submitr+0x746>
  402445:	89 c5                	mov    %eax,%ebp
  402447:	4c 89 e7             	mov    %r12,%rdi
  40244a:	e8 21 e9 ff ff       	callq  400d70 <gethostbyname@plt>
  40244f:	48 85 c0             	test   %rax,%rax
  402452:	75 67                	jne    4024bb <submitr+0x125>
  402454:	48 b8 45 72 72 6f 72 	movabs $0x44203a726f727245,%rax
  40245b:	3a 20 44 
  40245e:	48 89 03             	mov    %rax,(%rbx)
  402461:	48 b8 4e 53 20 69 73 	movabs $0x6e7520736920534e,%rax
  402468:	20 75 6e 
  40246b:	48 89 43 08          	mov    %rax,0x8(%rbx)
  40246f:	48 b8 61 62 6c 65 20 	movabs $0x206f7420656c6261,%rax
  402476:	74 6f 20 
  402479:	48 89 43 10          	mov    %rax,0x10(%rbx)
  40247d:	48 b8 72 65 73 6f 6c 	movabs $0x2065766c6f736572,%rax
  402484:	76 65 20 
  402487:	48 89 43 18          	mov    %rax,0x18(%rbx)
  40248b:	48 b8 73 65 72 76 65 	movabs $0x6120726576726573,%rax
  402492:	72 20 61 
  402495:	48 89 43 20          	mov    %rax,0x20(%rbx)
  402499:	c7 43 28 64 64 72 65 	movl   $0x65726464,0x28(%rbx)
  4024a0:	66 c7 43 2c 73 73    	movw   $0x7373,0x2c(%rbx)
  4024a6:	c6 43 2e 00          	movb   $0x0,0x2e(%rbx)
  4024aa:	89 ef                	mov    %ebp,%edi
  4024ac:	e8 7f e8 ff ff       	callq  400d30 <close@plt>
  4024b1:	b8 ff ff ff ff       	mov    $0xffffffff,%eax
  4024b6:	e9 21 06 00 00       	jmpq   402adc <submitr+0x746>
  4024bb:	48 c7 44 24 20 00 00 	movq   $0x0,0x20(%rsp)
  4024c2:	00 00 
  4024c4:	48 c7 44 24 28 00 00 	movq   $0x0,0x28(%rsp)
  4024cb:	00 00 
  4024cd:	66 c7 44 24 20 02 00 	movw   $0x2,0x20(%rsp)
  4024d4:	48 63 50 14          	movslq 0x14(%rax),%rdx
  4024d8:	48 8b 40 18          	mov    0x18(%rax),%rax
  4024dc:	48 8b 30             	mov    (%rax),%rsi
  4024df:	48 8d 7c 24 24       	lea    0x24(%rsp),%rdi
  4024e4:	b9 0c 00 00 00       	mov    $0xc,%ecx
  4024e9:	e8 92 e8 ff ff       	callq  400d80 <__memmove_chk@plt>
  4024ee:	0f b7 44 24 04       	movzwl 0x4(%rsp),%eax
  4024f3:	66 c1 c8 08          	ror    $0x8,%ax
  4024f7:	66 89 44 24 22       	mov    %ax,0x22(%rsp)
  4024fc:	ba 10 00 00 00       	mov    $0x10,%edx
  402501:	48 8d 74 24 20       	lea    0x20(%rsp),%rsi
  402506:	89 ef                	mov    %ebp,%edi
  402508:	e8 53 e9 ff ff       	callq  400e60 <connect@plt>
  40250d:	85 c0                	test   %eax,%eax
  40250f:	79 59                	jns    40256a <submitr+0x1d4>
  402511:	48 b8 45 72 72 6f 72 	movabs $0x55203a726f727245,%rax
  402518:	3a 20 55 
  40251b:	48 89 03             	mov    %rax,(%rbx)
  40251e:	48 b8 6e 61 62 6c 65 	movabs $0x6f7420656c62616e,%rax
  402525:	20 74 6f 
  402528:	48 89 43 08          	mov    %rax,0x8(%rbx)
  40252c:	48 b8 20 63 6f 6e 6e 	movabs $0x7463656e6e6f6320,%rax
  402533:	65 63 74 
  402536:	48 89 43 10          	mov    %rax,0x10(%rbx)
  40253a:	48 b8 20 74 6f 20 74 	movabs $0x20656874206f7420,%rax
  402541:	68 65 20 
  402544:	48 89 43 18          	mov    %rax,0x18(%rbx)
  402548:	c7 43 20 73 65 72 76 	movl   $0x76726573,0x20(%rbx)
  40254f:	66 c7 43 24 65 72    	movw   $0x7265,0x24(%rbx)
  402555:	c6 43 26 00          	movb   $0x0,0x26(%rbx)
  402559:	89 ef                	mov    %ebp,%edi
  40255b:	e8 d0 e7 ff ff       	callq  400d30 <close@plt>
  402560:	b8 ff ff ff ff       	mov    $0xffffffff,%eax
  402565:	e9 72 05 00 00       	jmpq   402adc <submitr+0x746>
  40256a:	48 c7 c6 ff ff ff ff 	mov    $0xffffffffffffffff,%rsi
  402571:	b8 00 00 00 00       	mov    $0x0,%eax
  402576:	48 89 f1             	mov    %rsi,%rcx
  402579:	4c 89 ef             	mov    %r13,%rdi
  40257c:	f2 ae                	repnz scas %es:(%rdi),%al
  40257e:	48 f7 d1             	not    %rcx
  402581:	48 89 ca             	mov    %rcx,%rdx
  402584:	48 89 f1             	mov    %rsi,%rcx
  402587:	4c 89 ff             	mov    %r15,%rdi
  40258a:	f2 ae                	repnz scas %es:(%rdi),%al
  40258c:	48 f7 d1             	not    %rcx
  40258f:	49 89 c8             	mov    %rcx,%r8
  402592:	48 89 f1             	mov    %rsi,%rcx
  402595:	4c 89 f7             	mov    %r14,%rdi
  402598:	f2 ae                	repnz scas %es:(%rdi),%al
  40259a:	48 f7 d1             	not    %rcx
  40259d:	4d 8d 44 08 fe       	lea    -0x2(%r8,%rcx,1),%r8
  4025a2:	48 89 f1             	mov    %rsi,%rcx
  4025a5:	48 8b 7c 24 08       	mov    0x8(%rsp),%rdi
  4025aa:	f2 ae                	repnz scas %es:(%rdi),%al
  4025ac:	48 89 c8             	mov    %rcx,%rax
  4025af:	48 f7 d0             	not    %rax
  4025b2:	49 8d 4c 00 ff       	lea    -0x1(%r8,%rax,1),%rcx
  4025b7:	48 8d 44 52 fd       	lea    -0x3(%rdx,%rdx,2),%rax
  4025bc:	48 8d 84 01 80 00 00 	lea    0x80(%rcx,%rax,1),%rax
  4025c3:	00 
  4025c4:	48 3d 00 20 00 00    	cmp    $0x2000,%rax
  4025ca:	76 72                	jbe    40263e <submitr+0x2a8>
  4025cc:	48 b8 45 72 72 6f 72 	movabs $0x52203a726f727245,%rax
  4025d3:	3a 20 52 
  4025d6:	48 89 03             	mov    %rax,(%rbx)
  4025d9:	48 b8 65 73 75 6c 74 	movabs $0x747320746c757365,%rax
  4025e0:	20 73 74 
  4025e3:	48 89 43 08          	mov    %rax,0x8(%rbx)
  4025e7:	48 b8 72 69 6e 67 20 	movabs $0x6f6f7420676e6972,%rax
  4025ee:	74 6f 6f 
  4025f1:	48 89 43 10          	mov    %rax,0x10(%rbx)
  4025f5:	48 b8 20 6c 61 72 67 	movabs $0x202e656772616c20,%rax
  4025fc:	65 2e 20 
  4025ff:	48 89 43 18          	mov    %rax,0x18(%rbx)
  402603:	48 b8 49 6e 63 72 65 	movabs $0x6573616572636e49,%rax
  40260a:	61 73 65 
  40260d:	48 89 43 20          	mov    %rax,0x20(%rbx)
  402611:	48 b8 20 53 55 42 4d 	movabs $0x5254494d42555320,%rax
  402618:	49 54 52 
  40261b:	48 89 43 28          	mov    %rax,0x28(%rbx)
  40261f:	48 b8 5f 4d 41 58 42 	movabs $0x46554258414d5f,%rax
  402626:	55 46 00 
  402629:	48 89 43 30          	mov    %rax,0x30(%rbx)
  40262d:	89 ef                	mov    %ebp,%edi
  40262f:	e8 fc e6 ff ff       	callq  400d30 <close@plt>
  402634:	b8 ff ff ff ff       	mov    $0xffffffff,%eax
  402639:	e9 9e 04 00 00       	jmpq   402adc <submitr+0x746>
  40263e:	48 8d b4 24 40 40 00 	lea    0x4040(%rsp),%rsi
  402645:	00 
  402646:	b9 00 04 00 00       	mov    $0x400,%ecx
  40264b:	b8 00 00 00 00       	mov    $0x0,%eax
  402650:	48 89 f7             	mov    %rsi,%rdi
  402653:	f3 48 ab             	rep stos %rax,%es:(%rdi)
  402656:	4c 89 ef             	mov    %r13,%rdi
  402659:	e8 2b fc ff ff       	callq  402289 <urlencode>
  40265e:	85 c0                	test   %eax,%eax
  402660:	0f 89 8a 00 00 00    	jns    4026f0 <submitr+0x35a>
  402666:	48 b8 45 72 72 6f 72 	movabs $0x52203a726f727245,%rax
  40266d:	3a 20 52 
  402670:	48 89 03             	mov    %rax,(%rbx)
  402673:	48 b8 65 73 75 6c 74 	movabs $0x747320746c757365,%rax
  40267a:	20 73 74 
  40267d:	48 89 43 08          	mov    %rax,0x8(%rbx)
  402681:	48 b8 72 69 6e 67 20 	movabs $0x6e6f6320676e6972,%rax
  402688:	63 6f 6e 
  40268b:	48 89 43 10          	mov    %rax,0x10(%rbx)
  40268f:	48 b8 74 61 69 6e 73 	movabs $0x6e6120736e696174,%rax
  402696:	20 61 6e 
  402699:	48 89 43 18          	mov    %rax,0x18(%rbx)
  40269d:	48 b8 20 69 6c 6c 65 	movabs $0x6c6167656c6c6920,%rax
  4026a4:	67 61 6c 
  4026a7:	48 89 43 20          	mov    %rax,0x20(%rbx)
  4026ab:	48 b8 20 6f 72 20 75 	movabs $0x72706e7520726f20,%rax
  4026b2:	6e 70 72 
  4026b5:	48 89 43 28          	mov    %rax,0x28(%rbx)
  4026b9:	48 b8 69 6e 74 61 62 	movabs $0x20656c6261746e69,%rax
  4026c0:	6c 65 20 
  4026c3:	48 89 43 30          	mov    %rax,0x30(%rbx)
  4026c7:	48 b8 63 68 61 72 61 	movabs $0x6574636172616863,%rax
  4026ce:	63 74 65 
  4026d1:	48 89 43 38          	mov    %rax,0x38(%rbx)
  4026d5:	66 c7 43 40 72 2e    	movw   $0x2e72,0x40(%rbx)
  4026db:	c6 43 42 00          	movb   $0x0,0x42(%rbx)
  4026df:	89 ef                	mov    %ebp,%edi
  4026e1:	e8 4a e6 ff ff       	callq  400d30 <close@plt>
  4026e6:	b8 ff ff ff ff       	mov    $0xffffffff,%eax
  4026eb:	e9 ec 03 00 00       	jmpq   402adc <submitr+0x746>
  4026f0:	4c 8d ac 24 40 20 00 	lea    0x2040(%rsp),%r13
  4026f7:	00 
  4026f8:	41 54                	push   %r12
  4026fa:	48 8d 84 24 48 40 00 	lea    0x4048(%rsp),%rax
  402701:	00 
  402702:	50                   	push   %rax
  402703:	4d 89 f9             	mov    %r15,%r9
  402706:	4d 89 f0             	mov    %r14,%r8
  402709:	b9 08 36 40 00       	mov    $0x403608,%ecx
  40270e:	ba 00 20 00 00       	mov    $0x2000,%edx
  402713:	be 01 00 00 00       	mov    $0x1,%esi
  402718:	4c 89 ef             	mov    %r13,%rdi
  40271b:	b8 00 00 00 00       	mov    $0x0,%eax
  402720:	e8 5b e7 ff ff       	callq  400e80 <__sprintf_chk@plt>
  402725:	b8 00 00 00 00       	mov    $0x0,%eax
  40272a:	48 c7 c1 ff ff ff ff 	mov    $0xffffffffffffffff,%rcx
  402731:	4c 89 ef             	mov    %r13,%rdi
  402734:	f2 ae                	repnz scas %es:(%rdi),%al
  402736:	48 f7 d1             	not    %rcx
  402739:	48 8d 51 ff          	lea    -0x1(%rcx),%rdx
  40273d:	4c 89 ee             	mov    %r13,%rsi
  402740:	89 ef                	mov    %ebp,%edi
  402742:	e8 b1 f9 ff ff       	callq  4020f8 <rio_writen>
  402747:	48 83 c4 10          	add    $0x10,%rsp
  40274b:	48 85 c0             	test   %rax,%rax
  40274e:	79 6e                	jns    4027be <submitr+0x428>
  402750:	48 b8 45 72 72 6f 72 	movabs $0x43203a726f727245,%rax
  402757:	3a 20 43 
  40275a:	48 89 03             	mov    %rax,(%rbx)
  40275d:	48 b8 6c 69 65 6e 74 	movabs $0x6e7520746e65696c,%rax
  402764:	20 75 6e 
  402767:	48 89 43 08          	mov    %rax,0x8(%rbx)
  40276b:	48 b8 61 62 6c 65 20 	movabs $0x206f7420656c6261,%rax
  402772:	74 6f 20 
  402775:	48 89 43 10          	mov    %rax,0x10(%rbx)
  402779:	48 b8 77 72 69 74 65 	movabs $0x6f74206574697277,%rax
  402780:	20 74 6f 
  402783:	48 89 43 18          	mov    %rax,0x18(%rbx)
  402787:	48 b8 20 74 68 65 20 	movabs $0x7365722065687420,%rax
  40278e:	72 65 73 
  402791:	48 89 43 20          	mov    %rax,0x20(%rbx)
  402795:	48 b8 75 6c 74 20 73 	movabs $0x7672657320746c75,%rax
  40279c:	65 72 76 
  40279f:	48 89 43 28          	mov    %rax,0x28(%rbx)
  4027a3:	66 c7 43 30 65 72    	movw   $0x7265,0x30(%rbx)
  4027a9:	c6 43 32 00          	movb   $0x0,0x32(%rbx)
  4027ad:	89 ef                	mov    %ebp,%edi
  4027af:	e8 7c e5 ff ff       	callq  400d30 <close@plt>
  4027b4:	b8 ff ff ff ff       	mov    $0xffffffff,%eax
  4027b9:	e9 1e 03 00 00       	jmpq   402adc <submitr+0x746>
  4027be:	89 ee                	mov    %ebp,%esi
  4027c0:	48 8d 7c 24 30       	lea    0x30(%rsp),%rdi
  4027c5:	e8 ee f8 ff ff       	callq  4020b8 <rio_readinitb>
  4027ca:	ba 00 20 00 00       	mov    $0x2000,%edx
  4027cf:	48 8d b4 24 40 20 00 	lea    0x2040(%rsp),%rsi
  4027d6:	00 
  4027d7:	48 8d 7c 24 30       	lea    0x30(%rsp),%rdi
  4027dc:	e8 fe f9 ff ff       	callq  4021df <rio_readlineb>
  4027e1:	48 85 c0             	test   %rax,%rax
  4027e4:	7f 7d                	jg     402863 <submitr+0x4cd>
  4027e6:	48 b8 45 72 72 6f 72 	movabs $0x43203a726f727245,%rax
  4027ed:	3a 20 43 
  4027f0:	48 89 03             	mov    %rax,(%rbx)
  4027f3:	48 b8 6c 69 65 6e 74 	movabs $0x6e7520746e65696c,%rax
  4027fa:	20 75 6e 
  4027fd:	48 89 43 08          	mov    %rax,0x8(%rbx)
  402801:	48 b8 61 62 6c 65 20 	movabs $0x206f7420656c6261,%rax
  402808:	74 6f 20 
  40280b:	48 89 43 10          	mov    %rax,0x10(%rbx)
  40280f:	48 b8 72 65 61 64 20 	movabs $0x7269662064616572,%rax
  402816:	66 69 72 
  402819:	48 89 43 18          	mov    %rax,0x18(%rbx)
  40281d:	48 b8 73 74 20 68 65 	movabs $0x6564616568207473,%rax
  402824:	61 64 65 
  402827:	48 89 43 20          	mov    %rax,0x20(%rbx)
  40282b:	48 b8 72 20 66 72 6f 	movabs $0x72206d6f72662072,%rax
  402832:	6d 20 72 
  402835:	48 89 43 28          	mov    %rax,0x28(%rbx)
  402839:	48 b8 65 73 75 6c 74 	movabs $0x657320746c757365,%rax
  402840:	20 73 65 
  402843:	48 89 43 30          	mov    %rax,0x30(%rbx)
  402847:	c7 43 38 72 76 65 72 	movl   $0x72657672,0x38(%rbx)
  40284e:	c6 43 3c 00          	movb   $0x0,0x3c(%rbx)
  402852:	89 ef                	mov    %ebp,%edi
  402854:	e8 d7 e4 ff ff       	callq  400d30 <close@plt>
  402859:	b8 ff ff ff ff       	mov    $0xffffffff,%eax
  40285e:	e9 79 02 00 00       	jmpq   402adc <submitr+0x746>
  402863:	4c 8d 84 24 40 80 00 	lea    0x8040(%rsp),%r8
  40286a:	00 
  40286b:	48 8d 4c 24 1c       	lea    0x1c(%rsp),%rcx
  402870:	48 8d 94 24 40 60 00 	lea    0x6040(%rsp),%rdx
  402877:	00 
  402878:	be 7f 36 40 00       	mov    $0x40367f,%esi
  40287d:	48 8d bc 24 40 20 00 	lea    0x2040(%rsp),%rdi
  402884:	00 
  402885:	b8 00 00 00 00       	mov    $0x0,%eax
  40288a:	e8 51 e5 ff ff       	callq  400de0 <__isoc99_sscanf@plt>
  40288f:	e9 95 00 00 00       	jmpq   402929 <submitr+0x593>
  402894:	ba 00 20 00 00       	mov    $0x2000,%edx
  402899:	48 8d b4 24 40 20 00 	lea    0x2040(%rsp),%rsi
  4028a0:	00 
  4028a1:	48 8d 7c 24 30       	lea    0x30(%rsp),%rdi
  4028a6:	e8 34 f9 ff ff       	callq  4021df <rio_readlineb>
  4028ab:	48 85 c0             	test   %rax,%rax
  4028ae:	7f 79                	jg     402929 <submitr+0x593>
  4028b0:	48 b8 45 72 72 6f 72 	movabs $0x43203a726f727245,%rax
  4028b7:	3a 20 43 
  4028ba:	48 89 03             	mov    %rax,(%rbx)
  4028bd:	48 b8 6c 69 65 6e 74 	movabs $0x6e7520746e65696c,%rax
  4028c4:	20 75 6e 
  4028c7:	48 89 43 08          	mov    %rax,0x8(%rbx)
  4028cb:	48 b8 61 62 6c 65 20 	movabs $0x206f7420656c6261,%rax
  4028d2:	74 6f 20 
  4028d5:	48 89 43 10          	mov    %rax,0x10(%rbx)
  4028d9:	48 b8 72 65 61 64 20 	movabs $0x6165682064616572,%rax
  4028e0:	68 65 61 
  4028e3:	48 89 43 18          	mov    %rax,0x18(%rbx)
  4028e7:	48 b8 64 65 72 73 20 	movabs $0x6f72662073726564,%rax
  4028ee:	66 72 6f 
  4028f1:	48 89 43 20          	mov    %rax,0x20(%rbx)
  4028f5:	48 b8 6d 20 74 68 65 	movabs $0x657220656874206d,%rax
  4028fc:	20 72 65 
  4028ff:	48 89 43 28          	mov    %rax,0x28(%rbx)
  402903:	48 b8 73 75 6c 74 20 	movabs $0x72657320746c7573,%rax
  40290a:	73 65 72 
  40290d:	48 89 43 30          	mov    %rax,0x30(%rbx)
  402911:	c7 43 38 76 65 72 00 	movl   $0x726576,0x38(%rbx)
  402918:	89 ef                	mov    %ebp,%edi
  40291a:	e8 11 e4 ff ff       	callq  400d30 <close@plt>
  40291f:	b8 ff ff ff ff       	mov    $0xffffffff,%eax
  402924:	e9 b3 01 00 00       	jmpq   402adc <submitr+0x746>
  402929:	0f b6 94 24 40 20 00 	movzbl 0x2040(%rsp),%edx
  402930:	00 
  402931:	b8 0d 00 00 00       	mov    $0xd,%eax
  402936:	29 d0                	sub    %edx,%eax
  402938:	75 1b                	jne    402955 <submitr+0x5bf>
  40293a:	0f b6 94 24 41 20 00 	movzbl 0x2041(%rsp),%edx
  402941:	00 
  402942:	b8 0a 00 00 00       	mov    $0xa,%eax
  402947:	29 d0                	sub    %edx,%eax
  402949:	75 0a                	jne    402955 <submitr+0x5bf>
  40294b:	0f b6 84 24 42 20 00 	movzbl 0x2042(%rsp),%eax
  402952:	00 
  402953:	f7 d8                	neg    %eax
  402955:	85 c0                	test   %eax,%eax
  402957:	0f 85 37 ff ff ff    	jne    402894 <submitr+0x4fe>
  40295d:	ba 00 20 00 00       	mov    $0x2000,%edx
  402962:	48 8d b4 24 40 20 00 	lea    0x2040(%rsp),%rsi
  402969:	00 
  40296a:	48 8d 7c 24 30       	lea    0x30(%rsp),%rdi
  40296f:	e8 6b f8 ff ff       	callq  4021df <rio_readlineb>
  402974:	48 85 c0             	test   %rax,%rax
  402977:	0f 8f 83 00 00 00    	jg     402a00 <submitr+0x66a>
  40297d:	48 b8 45 72 72 6f 72 	movabs $0x43203a726f727245,%rax
  402984:	3a 20 43 
  402987:	48 89 03             	mov    %rax,(%rbx)
  40298a:	48 b8 6c 69 65 6e 74 	movabs $0x6e7520746e65696c,%rax
  402991:	20 75 6e 
  402994:	48 89 43 08          	mov    %rax,0x8(%rbx)
  402998:	48 b8 61 62 6c 65 20 	movabs $0x206f7420656c6261,%rax
  40299f:	74 6f 20 
  4029a2:	48 89 43 10          	mov    %rax,0x10(%rbx)
  4029a6:	48 b8 72 65 61 64 20 	movabs $0x6174732064616572,%rax
  4029ad:	73 74 61 
  4029b0:	48 89 43 18          	mov    %rax,0x18(%rbx)
  4029b4:	48 b8 74 75 73 20 6d 	movabs $0x7373656d20737574,%rax
  4029bb:	65 73 73 
  4029be:	48 89 43 20          	mov    %rax,0x20(%rbx)
  4029c2:	48 b8 61 67 65 20 66 	movabs $0x6d6f726620656761,%rax
  4029c9:	72 6f 6d 
  4029cc:	48 89 43 28          	mov    %rax,0x28(%rbx)
  4029d0:	48 b8 20 72 65 73 75 	movabs $0x20746c7573657220,%rax
  4029d7:	6c 74 20 
  4029da:	48 89 43 30          	mov    %rax,0x30(%rbx)
  4029de:	c7 43 38 73 65 72 76 	movl   $0x76726573,0x38(%rbx)
  4029e5:	66 c7 43 3c 65 72    	movw   $0x7265,0x3c(%rbx)
  4029eb:	c6 43 3e 00          	movb   $0x0,0x3e(%rbx)
  4029ef:	89 ef                	mov    %ebp,%edi
  4029f1:	e8 3a e3 ff ff       	callq  400d30 <close@plt>
  4029f6:	b8 ff ff ff ff       	mov    $0xffffffff,%eax
  4029fb:	e9 dc 00 00 00       	jmpq   402adc <submitr+0x746>
  402a00:	44 8b 44 24 1c       	mov    0x1c(%rsp),%r8d
  402a05:	41 81 f8 c8 00 00 00 	cmp    $0xc8,%r8d
  402a0c:	74 37                	je     402a45 <submitr+0x6af>
  402a0e:	4c 8d 8c 24 40 80 00 	lea    0x8040(%rsp),%r9
  402a15:	00 
  402a16:	b9 48 36 40 00       	mov    $0x403648,%ecx
  402a1b:	48 c7 c2 ff ff ff ff 	mov    $0xffffffffffffffff,%rdx
  402a22:	be 01 00 00 00       	mov    $0x1,%esi
  402a27:	48 89 df             	mov    %rbx,%rdi
  402a2a:	b8 00 00 00 00       	mov    $0x0,%eax
  402a2f:	e8 4c e4 ff ff       	callq  400e80 <__sprintf_chk@plt>
  402a34:	89 ef                	mov    %ebp,%edi
  402a36:	e8 f5 e2 ff ff       	callq  400d30 <close@plt>
  402a3b:	b8 ff ff ff ff       	mov    $0xffffffff,%eax
  402a40:	e9 97 00 00 00       	jmpq   402adc <submitr+0x746>
  402a45:	48 8d b4 24 40 20 00 	lea    0x2040(%rsp),%rsi
  402a4c:	00 
  402a4d:	48 89 df             	mov    %rbx,%rdi
  402a50:	e8 6b e2 ff ff       	callq  400cc0 <strcpy@plt>
  402a55:	89 ef                	mov    %ebp,%edi
  402a57:	e8 d4 e2 ff ff       	callq  400d30 <close@plt>
  402a5c:	0f b6 03             	movzbl (%rbx),%eax
  402a5f:	ba 4f 00 00 00       	mov    $0x4f,%edx
  402a64:	29 c2                	sub    %eax,%edx
  402a66:	75 22                	jne    402a8a <submitr+0x6f4>
  402a68:	0f b6 4b 01          	movzbl 0x1(%rbx),%ecx
  402a6c:	b8 4b 00 00 00       	mov    $0x4b,%eax
  402a71:	29 c8                	sub    %ecx,%eax
  402a73:	75 17                	jne    402a8c <submitr+0x6f6>
  402a75:	0f b6 4b 02          	movzbl 0x2(%rbx),%ecx
  402a79:	b8 0a 00 00 00       	mov    $0xa,%eax
  402a7e:	29 c8                	sub    %ecx,%eax
  402a80:	75 0a                	jne    402a8c <submitr+0x6f6>
  402a82:	0f b6 43 03          	movzbl 0x3(%rbx),%eax
  402a86:	f7 d8                	neg    %eax
  402a88:	eb 02                	jmp    402a8c <submitr+0x6f6>
  402a8a:	89 d0                	mov    %edx,%eax
  402a8c:	85 c0                	test   %eax,%eax
  402a8e:	74 40                	je     402ad0 <submitr+0x73a>
  402a90:	bf 90 36 40 00       	mov    $0x403690,%edi
  402a95:	b9 05 00 00 00       	mov    $0x5,%ecx
  402a9a:	48 89 de             	mov    %rbx,%rsi
  402a9d:	f3 a6                	repz cmpsb %es:(%rdi),%ds:(%rsi)
  402a9f:	0f 97 c0             	seta   %al
  402aa2:	0f 92 c1             	setb   %cl
  402aa5:	29 c8                	sub    %ecx,%eax
  402aa7:	0f be c0             	movsbl %al,%eax
  402aaa:	85 c0                	test   %eax,%eax
  402aac:	74 2e                	je     402adc <submitr+0x746>
  402aae:	85 d2                	test   %edx,%edx
  402ab0:	75 13                	jne    402ac5 <submitr+0x72f>
  402ab2:	0f b6 43 01          	movzbl 0x1(%rbx),%eax
  402ab6:	ba 4b 00 00 00       	mov    $0x4b,%edx
  402abb:	29 c2                	sub    %eax,%edx
  402abd:	75 06                	jne    402ac5 <submitr+0x72f>
  402abf:	0f b6 53 02          	movzbl 0x2(%rbx),%edx
  402ac3:	f7 da                	neg    %edx
  402ac5:	85 d2                	test   %edx,%edx
  402ac7:	75 0e                	jne    402ad7 <submitr+0x741>
  402ac9:	b8 00 00 00 00       	mov    $0x0,%eax
  402ace:	eb 0c                	jmp    402adc <submitr+0x746>
  402ad0:	b8 00 00 00 00       	mov    $0x0,%eax
  402ad5:	eb 05                	jmp    402adc <submitr+0x746>
  402ad7:	b8 ff ff ff ff       	mov    $0xffffffff,%eax
  402adc:	48 8b 9c 24 48 a0 00 	mov    0xa048(%rsp),%rbx
  402ae3:	00 
  402ae4:	64 48 33 1c 25 28 00 	xor    %fs:0x28,%rbx
  402aeb:	00 00 
  402aed:	74 05                	je     402af4 <submitr+0x75e>
  402aef:	e8 fc e1 ff ff       	callq  400cf0 <__stack_chk_fail@plt>
  402af4:	48 81 c4 58 a0 00 00 	add    $0xa058,%rsp
  402afb:	5b                   	pop    %rbx
  402afc:	5d                   	pop    %rbp
  402afd:	41 5c                	pop    %r12
  402aff:	41 5d                	pop    %r13
  402b01:	41 5e                	pop    %r14
  402b03:	41 5f                	pop    %r15
  402b05:	c3                   	retq   

0000000000402b06 <init_timeout>:
  402b06:	85 ff                	test   %edi,%edi
  402b08:	74 23                	je     402b2d <init_timeout+0x27>
  402b0a:	53                   	push   %rbx
  402b0b:	89 fb                	mov    %edi,%ebx
  402b0d:	85 ff                	test   %edi,%edi
  402b0f:	79 05                	jns    402b16 <init_timeout+0x10>
  402b11:	bb 00 00 00 00       	mov    $0x0,%ebx
  402b16:	be ca 20 40 00       	mov    $0x4020ca,%esi
  402b1b:	bf 0e 00 00 00       	mov    $0xe,%edi
  402b20:	e8 3b e2 ff ff       	callq  400d60 <signal@plt>
  402b25:	89 df                	mov    %ebx,%edi
  402b27:	e8 f4 e1 ff ff       	callq  400d20 <alarm@plt>
  402b2c:	5b                   	pop    %rbx
  402b2d:	f3 c3                	repz retq 

0000000000402b2f <init_driver>:
  402b2f:	55                   	push   %rbp
  402b30:	53                   	push   %rbx
  402b31:	48 83 ec 28          	sub    $0x28,%rsp
  402b35:	48 89 fd             	mov    %rdi,%rbp
  402b38:	64 48 8b 04 25 28 00 	mov    %fs:0x28,%rax
  402b3f:	00 00 
  402b41:	48 89 44 24 18       	mov    %rax,0x18(%rsp)
  402b46:	31 c0                	xor    %eax,%eax
  402b48:	be 01 00 00 00       	mov    $0x1,%esi
  402b4d:	bf 0d 00 00 00       	mov    $0xd,%edi
  402b52:	e8 09 e2 ff ff       	callq  400d60 <signal@plt>
  402b57:	be 01 00 00 00       	mov    $0x1,%esi
  402b5c:	bf 1d 00 00 00       	mov    $0x1d,%edi
  402b61:	e8 fa e1 ff ff       	callq  400d60 <signal@plt>
  402b66:	be 01 00 00 00       	mov    $0x1,%esi
  402b6b:	bf 1d 00 00 00       	mov    $0x1d,%edi
  402b70:	e8 eb e1 ff ff       	callq  400d60 <signal@plt>
  402b75:	ba 00 00 00 00       	mov    $0x0,%edx
  402b7a:	be 01 00 00 00       	mov    $0x1,%esi
  402b7f:	bf 02 00 00 00       	mov    $0x2,%edi
  402b84:	e8 07 e3 ff ff       	callq  400e90 <socket@plt>
  402b89:	85 c0                	test   %eax,%eax
  402b8b:	79 4f                	jns    402bdc <init_driver+0xad>
  402b8d:	48 b8 45 72 72 6f 72 	movabs $0x43203a726f727245,%rax
  402b94:	3a 20 43 
  402b97:	48 89 45 00          	mov    %rax,0x0(%rbp)
  402b9b:	48 b8 6c 69 65 6e 74 	movabs $0x6e7520746e65696c,%rax
  402ba2:	20 75 6e 
  402ba5:	48 89 45 08          	mov    %rax,0x8(%rbp)
  402ba9:	48 b8 61 62 6c 65 20 	movabs $0x206f7420656c6261,%rax
  402bb0:	74 6f 20 
  402bb3:	48 89 45 10          	mov    %rax,0x10(%rbp)
  402bb7:	48 b8 63 72 65 61 74 	movabs $0x7320657461657263,%rax
  402bbe:	65 20 73 
  402bc1:	48 89 45 18          	mov    %rax,0x18(%rbp)
  402bc5:	c7 45 20 6f 63 6b 65 	movl   $0x656b636f,0x20(%rbp)
  402bcc:	66 c7 45 24 74 00    	movw   $0x74,0x24(%rbp)
  402bd2:	b8 ff ff ff ff       	mov    $0xffffffff,%eax
  402bd7:	e9 2a 01 00 00       	jmpq   402d06 <init_driver+0x1d7>
  402bdc:	89 c3                	mov    %eax,%ebx
  402bde:	bf 95 36 40 00       	mov    $0x403695,%edi
  402be3:	e8 88 e1 ff ff       	callq  400d70 <gethostbyname@plt>
  402be8:	48 85 c0             	test   %rax,%rax
  402beb:	75 68                	jne    402c55 <init_driver+0x126>
  402bed:	48 b8 45 72 72 6f 72 	movabs $0x44203a726f727245,%rax
  402bf4:	3a 20 44 
  402bf7:	48 89 45 00          	mov    %rax,0x0(%rbp)
  402bfb:	48 b8 4e 53 20 69 73 	movabs $0x6e7520736920534e,%rax
  402c02:	20 75 6e 
  402c05:	48 89 45 08          	mov    %rax,0x8(%rbp)
  402c09:	48 b8 61 62 6c 65 20 	movabs $0x206f7420656c6261,%rax
  402c10:	74 6f 20 
  402c13:	48 89 45 10          	mov    %rax,0x10(%rbp)
  402c17:	48 b8 72 65 73 6f 6c 	movabs $0x2065766c6f736572,%rax
  402c1e:	76 65 20 
  402c21:	48 89 45 18          	mov    %rax,0x18(%rbp)
  402c25:	48 b8 73 65 72 76 65 	movabs $0x6120726576726573,%rax
  402c2c:	72 20 61 
  402c2f:	48 89 45 20          	mov    %rax,0x20(%rbp)
  402c33:	c7 45 28 64 64 72 65 	movl   $0x65726464,0x28(%rbp)
  402c3a:	66 c7 45 2c 73 73    	movw   $0x7373,0x2c(%rbp)
  402c40:	c6 45 2e 00          	movb   $0x0,0x2e(%rbp)
  402c44:	89 df                	mov    %ebx,%edi
  402c46:	e8 e5 e0 ff ff       	callq  400d30 <close@plt>
  402c4b:	b8 ff ff ff ff       	mov    $0xffffffff,%eax
  402c50:	e9 b1 00 00 00       	jmpq   402d06 <init_driver+0x1d7>
  402c55:	48 c7 04 24 00 00 00 	movq   $0x0,(%rsp)
  402c5c:	00 
  402c5d:	48 c7 44 24 08 00 00 	movq   $0x0,0x8(%rsp)
  402c64:	00 00 
  402c66:	66 c7 04 24 02 00    	movw   $0x2,(%rsp)
  402c6c:	48 63 50 14          	movslq 0x14(%rax),%rdx
  402c70:	48 8b 40 18          	mov    0x18(%rax),%rax
  402c74:	48 8b 30             	mov    (%rax),%rsi
  402c77:	48 8d 7c 24 04       	lea    0x4(%rsp),%rdi
  402c7c:	b9 0c 00 00 00       	mov    $0xc,%ecx
  402c81:	e8 fa e0 ff ff       	callq  400d80 <__memmove_chk@plt>
  402c86:	66 c7 44 24 02 3c 9a 	movw   $0x9a3c,0x2(%rsp)
  402c8d:	ba 10 00 00 00       	mov    $0x10,%edx
  402c92:	48 89 e6             	mov    %rsp,%rsi
  402c95:	89 df                	mov    %ebx,%edi
  402c97:	e8 c4 e1 ff ff       	callq  400e60 <connect@plt>
  402c9c:	85 c0                	test   %eax,%eax
  402c9e:	79 50                	jns    402cf0 <init_driver+0x1c1>
  402ca0:	48 b8 45 72 72 6f 72 	movabs $0x55203a726f727245,%rax
  402ca7:	3a 20 55 
  402caa:	48 89 45 00          	mov    %rax,0x0(%rbp)
  402cae:	48 b8 6e 61 62 6c 65 	movabs $0x6f7420656c62616e,%rax
  402cb5:	20 74 6f 
  402cb8:	48 89 45 08          	mov    %rax,0x8(%rbp)
  402cbc:	48 b8 20 63 6f 6e 6e 	movabs $0x7463656e6e6f6320,%rax
  402cc3:	65 63 74 
  402cc6:	48 89 45 10          	mov    %rax,0x10(%rbp)
  402cca:	48 b8 20 74 6f 20 73 	movabs $0x76726573206f7420,%rax
  402cd1:	65 72 76 
  402cd4:	48 89 45 18          	mov    %rax,0x18(%rbp)
  402cd8:	66 c7 45 20 65 72    	movw   $0x7265,0x20(%rbp)
  402cde:	c6 45 22 00          	movb   $0x0,0x22(%rbp)
  402ce2:	89 df                	mov    %ebx,%edi
  402ce4:	e8 47 e0 ff ff       	callq  400d30 <close@plt>
  402ce9:	b8 ff ff ff ff       	mov    $0xffffffff,%eax
  402cee:	eb 16                	jmp    402d06 <init_driver+0x1d7>
  402cf0:	89 df                	mov    %ebx,%edi
  402cf2:	e8 39 e0 ff ff       	callq  400d30 <close@plt>
  402cf7:	66 c7 45 00 4f 4b    	movw   $0x4b4f,0x0(%rbp)
  402cfd:	c6 45 02 00          	movb   $0x0,0x2(%rbp)
  402d01:	b8 00 00 00 00       	mov    $0x0,%eax
  402d06:	48 8b 4c 24 18       	mov    0x18(%rsp),%rcx
  402d0b:	64 48 33 0c 25 28 00 	xor    %fs:0x28,%rcx
  402d12:	00 00 
  402d14:	74 05                	je     402d1b <init_driver+0x1ec>
  402d16:	e8 d5 df ff ff       	callq  400cf0 <__stack_chk_fail@plt>
  402d1b:	48 83 c4 28          	add    $0x28,%rsp
  402d1f:	5b                   	pop    %rbx
  402d20:	5d                   	pop    %rbp
  402d21:	c3                   	retq   

0000000000402d22 <driver_post>:
  402d22:	53                   	push   %rbx
  402d23:	4c 89 cb             	mov    %r9,%rbx
  402d26:	45 85 c0             	test   %r8d,%r8d
  402d29:	74 27                	je     402d52 <driver_post+0x30>
  402d2b:	48 89 ca             	mov    %rcx,%rdx
  402d2e:	be ac 36 40 00       	mov    $0x4036ac,%esi
  402d33:	bf 01 00 00 00       	mov    $0x1,%edi
  402d38:	b8 00 00 00 00       	mov    $0x0,%eax
  402d3d:	e8 be e0 ff ff       	callq  400e00 <__printf_chk@plt>
  402d42:	66 c7 03 4f 4b       	movw   $0x4b4f,(%rbx)
  402d47:	c6 43 02 00          	movb   $0x0,0x2(%rbx)
  402d4b:	b8 00 00 00 00       	mov    $0x0,%eax
  402d50:	eb 3f                	jmp    402d91 <driver_post+0x6f>
  402d52:	48 85 ff             	test   %rdi,%rdi
  402d55:	74 2c                	je     402d83 <driver_post+0x61>
  402d57:	80 3f 00             	cmpb   $0x0,(%rdi)
  402d5a:	74 27                	je     402d83 <driver_post+0x61>
  402d5c:	48 83 ec 08          	sub    $0x8,%rsp
  402d60:	41 51                	push   %r9
  402d62:	49 89 c9             	mov    %rcx,%r9
  402d65:	49 89 d0             	mov    %rdx,%r8
  402d68:	48 89 f9             	mov    %rdi,%rcx
  402d6b:	48 89 f2             	mov    %rsi,%rdx
  402d6e:	be 9a 3c 00 00       	mov    $0x3c9a,%esi
  402d73:	bf 95 36 40 00       	mov    $0x403695,%edi
  402d78:	e8 19 f6 ff ff       	callq  402396 <submitr>
  402d7d:	48 83 c4 10          	add    $0x10,%rsp
  402d81:	eb 0e                	jmp    402d91 <driver_post+0x6f>
  402d83:	66 c7 03 4f 4b       	movw   $0x4b4f,(%rbx)
  402d88:	c6 43 02 00          	movb   $0x0,0x2(%rbx)
  402d8c:	b8 00 00 00 00       	mov    $0x0,%eax
  402d91:	5b                   	pop    %rbx
  402d92:	c3                   	retq   

0000000000402d93 <check>:
  402d93:	89 f8                	mov    %edi,%eax
  402d95:	c1 e8 1c             	shr    $0x1c,%eax
  402d98:	85 c0                	test   %eax,%eax
  402d9a:	74 1d                	je     402db9 <check+0x26>
  402d9c:	b9 00 00 00 00       	mov    $0x0,%ecx
  402da1:	eb 0b                	jmp    402dae <check+0x1b>
  402da3:	89 f8                	mov    %edi,%eax
  402da5:	d3 e8                	shr    %cl,%eax
  402da7:	3c 0a                	cmp    $0xa,%al
  402da9:	74 14                	je     402dbf <check+0x2c>
  402dab:	83 c1 08             	add    $0x8,%ecx
  402dae:	83 f9 1f             	cmp    $0x1f,%ecx
  402db1:	7e f0                	jle    402da3 <check+0x10>
  402db3:	b8 01 00 00 00       	mov    $0x1,%eax
  402db8:	c3                   	retq   
  402db9:	b8 00 00 00 00       	mov    $0x0,%eax
  402dbe:	c3                   	retq   
  402dbf:	b8 00 00 00 00       	mov    $0x0,%eax
  402dc4:	c3                   	retq   

0000000000402dc5 <gencookie>:
  402dc5:	53                   	push   %rbx
  402dc6:	83 c7 01             	add    $0x1,%edi
  402dc9:	e8 d2 de ff ff       	callq  400ca0 <srandom@plt>
  402dce:	e8 ed df ff ff       	callq  400dc0 <random@plt>
  402dd3:	89 c3                	mov    %eax,%ebx
  402dd5:	89 c7                	mov    %eax,%edi
  402dd7:	e8 b7 ff ff ff       	callq  402d93 <check>
  402ddc:	85 c0                	test   %eax,%eax
  402dde:	74 ee                	je     402dce <gencookie+0x9>
  402de0:	89 d8                	mov    %ebx,%eax
  402de2:	5b                   	pop    %rbx
  402de3:	c3                   	retq   
  402de4:	66 2e 0f 1f 84 00 00 	nopw   %cs:0x0(%rax,%rax,1)
  402deb:	00 00 00 
  402dee:	66 90                	xchg   %ax,%ax

0000000000402df0 <__libc_csu_init>:
  402df0:	41 57                	push   %r15
  402df2:	41 56                	push   %r14
  402df4:	41 89 ff             	mov    %edi,%r15d
  402df7:	41 55                	push   %r13
  402df9:	41 54                	push   %r12
  402dfb:	4c 8d 25 0e 10 20 00 	lea    0x20100e(%rip),%r12        # 603e10 <__frame_dummy_init_array_entry>
  402e02:	55                   	push   %rbp
  402e03:	48 8d 2d 0e 10 20 00 	lea    0x20100e(%rip),%rbp        # 603e18 <__init_array_end>
  402e0a:	53                   	push   %rbx
  402e0b:	49 89 f6             	mov    %rsi,%r14
  402e0e:	49 89 d5             	mov    %rdx,%r13
  402e11:	4c 29 e5             	sub    %r12,%rbp
  402e14:	48 83 ec 08          	sub    $0x8,%rsp
  402e18:	48 c1 fd 03          	sar    $0x3,%rbp
  402e1c:	e8 27 de ff ff       	callq  400c48 <_init>
  402e21:	48 85 ed             	test   %rbp,%rbp
  402e24:	74 20                	je     402e46 <__libc_csu_init+0x56>
  402e26:	31 db                	xor    %ebx,%ebx
  402e28:	0f 1f 84 00 00 00 00 	nopl   0x0(%rax,%rax,1)
  402e2f:	00 
  402e30:	4c 89 ea             	mov    %r13,%rdx
  402e33:	4c 89 f6             	mov    %r14,%rsi
  402e36:	44 89 ff             	mov    %r15d,%edi
  402e39:	41 ff 14 dc          	callq  *(%r12,%rbx,8)
  402e3d:	48 83 c3 01          	add    $0x1,%rbx
  402e41:	48 39 eb             	cmp    %rbp,%rbx
  402e44:	75 ea                	jne    402e30 <__libc_csu_init+0x40>
  402e46:	48 83 c4 08          	add    $0x8,%rsp
  402e4a:	5b                   	pop    %rbx
  402e4b:	5d                   	pop    %rbp
  402e4c:	41 5c                	pop    %r12
  402e4e:	41 5d                	pop    %r13
  402e50:	41 5e                	pop    %r14
  402e52:	41 5f                	pop    %r15
  402e54:	c3                   	retq   
  402e55:	90                   	nop
  402e56:	66 2e 0f 1f 84 00 00 	nopw   %cs:0x0(%rax,%rax,1)
  402e5d:	00 00 00 

0000000000402e60 <__libc_csu_fini>:
  402e60:	f3 c3                	repz retq 

Disassembly of section .fini:

0000000000402e64 <_fini>:
  402e64:	48 83 ec 08          	sub    $0x8,%rsp
  402e68:	48 83 c4 08          	add    $0x8,%rsp
  402e6c:	c3                   	retq   
