
rtarget:     file format elf64-x86-64


Disassembly of section .init:

0000000000400c48 <_init>:
  400c48:	48 83 ec 08          	sub    $0x8,%rsp
  400c4c:	48 8b 05 a5 43 20 00 	mov    0x2043a5(%rip),%rax        # 604ff8 <__gmon_start__>
  400c53:	48 85 c0             	test   %rax,%rax
  400c56:	74 05                	je     400c5d <_init+0x15>
  400c58:	e8 43 02 00 00       	callq  400ea0 <__gmon_start__@plt>
  400c5d:	48 83 c4 08          	add    $0x8,%rsp
  400c61:	c3                   	retq   

Disassembly of section .plt:

0000000000400c70 <.plt>:
  400c70:	ff 35 92 43 20 00    	pushq  0x204392(%rip)        # 605008 <_GLOBAL_OFFSET_TABLE_+0x8>
  400c76:	ff 25 94 43 20 00    	jmpq   *0x204394(%rip)        # 605010 <_GLOBAL_OFFSET_TABLE_+0x10>
  400c7c:	0f 1f 40 00          	nopl   0x0(%rax)

0000000000400c80 <strcasecmp@plt>:
  400c80:	ff 25 92 43 20 00    	jmpq   *0x204392(%rip)        # 605018 <strcasecmp@GLIBC_2.2.5>
  400c86:	68 00 00 00 00       	pushq  $0x0
  400c8b:	e9 e0 ff ff ff       	jmpq   400c70 <.plt>

0000000000400c90 <__errno_location@plt>:
  400c90:	ff 25 8a 43 20 00    	jmpq   *0x20438a(%rip)        # 605020 <__errno_location@GLIBC_2.2.5>
  400c96:	68 01 00 00 00       	pushq  $0x1
  400c9b:	e9 d0 ff ff ff       	jmpq   400c70 <.plt>

0000000000400ca0 <srandom@plt>:
  400ca0:	ff 25 82 43 20 00    	jmpq   *0x204382(%rip)        # 605028 <srandom@GLIBC_2.2.5>
  400ca6:	68 02 00 00 00       	pushq  $0x2
  400cab:	e9 c0 ff ff ff       	jmpq   400c70 <.plt>

0000000000400cb0 <strncmp@plt>:
  400cb0:	ff 25 7a 43 20 00    	jmpq   *0x20437a(%rip)        # 605030 <strncmp@GLIBC_2.2.5>
  400cb6:	68 03 00 00 00       	pushq  $0x3
  400cbb:	e9 b0 ff ff ff       	jmpq   400c70 <.plt>

0000000000400cc0 <strcpy@plt>:
  400cc0:	ff 25 72 43 20 00    	jmpq   *0x204372(%rip)        # 605038 <strcpy@GLIBC_2.2.5>
  400cc6:	68 04 00 00 00       	pushq  $0x4
  400ccb:	e9 a0 ff ff ff       	jmpq   400c70 <.plt>

0000000000400cd0 <puts@plt>:
  400cd0:	ff 25 6a 43 20 00    	jmpq   *0x20436a(%rip)        # 605040 <puts@GLIBC_2.2.5>
  400cd6:	68 05 00 00 00       	pushq  $0x5
  400cdb:	e9 90 ff ff ff       	jmpq   400c70 <.plt>

0000000000400ce0 <write@plt>:
  400ce0:	ff 25 62 43 20 00    	jmpq   *0x204362(%rip)        # 605048 <write@GLIBC_2.2.5>
  400ce6:	68 06 00 00 00       	pushq  $0x6
  400ceb:	e9 80 ff ff ff       	jmpq   400c70 <.plt>

0000000000400cf0 <__stack_chk_fail@plt>:
  400cf0:	ff 25 5a 43 20 00    	jmpq   *0x20435a(%rip)        # 605050 <__stack_chk_fail@GLIBC_2.4>
  400cf6:	68 07 00 00 00       	pushq  $0x7
  400cfb:	e9 70 ff ff ff       	jmpq   400c70 <.plt>

0000000000400d00 <mmap@plt>:
  400d00:	ff 25 52 43 20 00    	jmpq   *0x204352(%rip)        # 605058 <mmap@GLIBC_2.2.5>
  400d06:	68 08 00 00 00       	pushq  $0x8
  400d0b:	e9 60 ff ff ff       	jmpq   400c70 <.plt>

0000000000400d10 <memset@plt>:
  400d10:	ff 25 4a 43 20 00    	jmpq   *0x20434a(%rip)        # 605060 <memset@GLIBC_2.2.5>
  400d16:	68 09 00 00 00       	pushq  $0x9
  400d1b:	e9 50 ff ff ff       	jmpq   400c70 <.plt>

0000000000400d20 <alarm@plt>:
  400d20:	ff 25 42 43 20 00    	jmpq   *0x204342(%rip)        # 605068 <alarm@GLIBC_2.2.5>
  400d26:	68 0a 00 00 00       	pushq  $0xa
  400d2b:	e9 40 ff ff ff       	jmpq   400c70 <.plt>

0000000000400d30 <close@plt>:
  400d30:	ff 25 3a 43 20 00    	jmpq   *0x20433a(%rip)        # 605070 <close@GLIBC_2.2.5>
  400d36:	68 0b 00 00 00       	pushq  $0xb
  400d3b:	e9 30 ff ff ff       	jmpq   400c70 <.plt>

0000000000400d40 <read@plt>:
  400d40:	ff 25 32 43 20 00    	jmpq   *0x204332(%rip)        # 605078 <read@GLIBC_2.2.5>
  400d46:	68 0c 00 00 00       	pushq  $0xc
  400d4b:	e9 20 ff ff ff       	jmpq   400c70 <.plt>

0000000000400d50 <__libc_start_main@plt>:
  400d50:	ff 25 2a 43 20 00    	jmpq   *0x20432a(%rip)        # 605080 <__libc_start_main@GLIBC_2.2.5>
  400d56:	68 0d 00 00 00       	pushq  $0xd
  400d5b:	e9 10 ff ff ff       	jmpq   400c70 <.plt>

0000000000400d60 <signal@plt>:
  400d60:	ff 25 22 43 20 00    	jmpq   *0x204322(%rip)        # 605088 <signal@GLIBC_2.2.5>
  400d66:	68 0e 00 00 00       	pushq  $0xe
  400d6b:	e9 00 ff ff ff       	jmpq   400c70 <.plt>

0000000000400d70 <gethostbyname@plt>:
  400d70:	ff 25 1a 43 20 00    	jmpq   *0x20431a(%rip)        # 605090 <gethostbyname@GLIBC_2.2.5>
  400d76:	68 0f 00 00 00       	pushq  $0xf
  400d7b:	e9 f0 fe ff ff       	jmpq   400c70 <.plt>

0000000000400d80 <__memmove_chk@plt>:
  400d80:	ff 25 12 43 20 00    	jmpq   *0x204312(%rip)        # 605098 <__memmove_chk@GLIBC_2.3.4>
  400d86:	68 10 00 00 00       	pushq  $0x10
  400d8b:	e9 e0 fe ff ff       	jmpq   400c70 <.plt>

0000000000400d90 <strtol@plt>:
  400d90:	ff 25 0a 43 20 00    	jmpq   *0x20430a(%rip)        # 6050a0 <strtol@GLIBC_2.2.5>
  400d96:	68 11 00 00 00       	pushq  $0x11
  400d9b:	e9 d0 fe ff ff       	jmpq   400c70 <.plt>

0000000000400da0 <memcpy@plt>:
  400da0:	ff 25 02 43 20 00    	jmpq   *0x204302(%rip)        # 6050a8 <memcpy@GLIBC_2.14>
  400da6:	68 12 00 00 00       	pushq  $0x12
  400dab:	e9 c0 fe ff ff       	jmpq   400c70 <.plt>

0000000000400db0 <time@plt>:
  400db0:	ff 25 fa 42 20 00    	jmpq   *0x2042fa(%rip)        # 6050b0 <time@GLIBC_2.2.5>
  400db6:	68 13 00 00 00       	pushq  $0x13
  400dbb:	e9 b0 fe ff ff       	jmpq   400c70 <.plt>

0000000000400dc0 <random@plt>:
  400dc0:	ff 25 f2 42 20 00    	jmpq   *0x2042f2(%rip)        # 6050b8 <random@GLIBC_2.2.5>
  400dc6:	68 14 00 00 00       	pushq  $0x14
  400dcb:	e9 a0 fe ff ff       	jmpq   400c70 <.plt>

0000000000400dd0 <_IO_getc@plt>:
  400dd0:	ff 25 ea 42 20 00    	jmpq   *0x2042ea(%rip)        # 6050c0 <_IO_getc@GLIBC_2.2.5>
  400dd6:	68 15 00 00 00       	pushq  $0x15
  400ddb:	e9 90 fe ff ff       	jmpq   400c70 <.plt>

0000000000400de0 <__isoc99_sscanf@plt>:
  400de0:	ff 25 e2 42 20 00    	jmpq   *0x2042e2(%rip)        # 6050c8 <__isoc99_sscanf@GLIBC_2.7>
  400de6:	68 16 00 00 00       	pushq  $0x16
  400deb:	e9 80 fe ff ff       	jmpq   400c70 <.plt>

0000000000400df0 <munmap@plt>:
  400df0:	ff 25 da 42 20 00    	jmpq   *0x2042da(%rip)        # 6050d0 <munmap@GLIBC_2.2.5>
  400df6:	68 17 00 00 00       	pushq  $0x17
  400dfb:	e9 70 fe ff ff       	jmpq   400c70 <.plt>

0000000000400e00 <__printf_chk@plt>:
  400e00:	ff 25 d2 42 20 00    	jmpq   *0x2042d2(%rip)        # 6050d8 <__printf_chk@GLIBC_2.3.4>
  400e06:	68 18 00 00 00       	pushq  $0x18
  400e0b:	e9 60 fe ff ff       	jmpq   400c70 <.plt>

0000000000400e10 <fopen@plt>:
  400e10:	ff 25 ca 42 20 00    	jmpq   *0x2042ca(%rip)        # 6050e0 <fopen@GLIBC_2.2.5>
  400e16:	68 19 00 00 00       	pushq  $0x19
  400e1b:	e9 50 fe ff ff       	jmpq   400c70 <.plt>

0000000000400e20 <getopt@plt>:
  400e20:	ff 25 c2 42 20 00    	jmpq   *0x2042c2(%rip)        # 6050e8 <getopt@GLIBC_2.2.5>
  400e26:	68 1a 00 00 00       	pushq  $0x1a
  400e2b:	e9 40 fe ff ff       	jmpq   400c70 <.plt>

0000000000400e30 <strtoul@plt>:
  400e30:	ff 25 ba 42 20 00    	jmpq   *0x2042ba(%rip)        # 6050f0 <strtoul@GLIBC_2.2.5>
  400e36:	68 1b 00 00 00       	pushq  $0x1b
  400e3b:	e9 30 fe ff ff       	jmpq   400c70 <.plt>

0000000000400e40 <gethostname@plt>:
  400e40:	ff 25 b2 42 20 00    	jmpq   *0x2042b2(%rip)        # 6050f8 <gethostname@GLIBC_2.2.5>
  400e46:	68 1c 00 00 00       	pushq  $0x1c
  400e4b:	e9 20 fe ff ff       	jmpq   400c70 <.plt>

0000000000400e50 <exit@plt>:
  400e50:	ff 25 aa 42 20 00    	jmpq   *0x2042aa(%rip)        # 605100 <exit@GLIBC_2.2.5>
  400e56:	68 1d 00 00 00       	pushq  $0x1d
  400e5b:	e9 10 fe ff ff       	jmpq   400c70 <.plt>

0000000000400e60 <connect@plt>:
  400e60:	ff 25 a2 42 20 00    	jmpq   *0x2042a2(%rip)        # 605108 <connect@GLIBC_2.2.5>
  400e66:	68 1e 00 00 00       	pushq  $0x1e
  400e6b:	e9 00 fe ff ff       	jmpq   400c70 <.plt>

0000000000400e70 <__fprintf_chk@plt>:
  400e70:	ff 25 9a 42 20 00    	jmpq   *0x20429a(%rip)        # 605110 <__fprintf_chk@GLIBC_2.3.4>
  400e76:	68 1f 00 00 00       	pushq  $0x1f
  400e7b:	e9 f0 fd ff ff       	jmpq   400c70 <.plt>

0000000000400e80 <__sprintf_chk@plt>:
  400e80:	ff 25 92 42 20 00    	jmpq   *0x204292(%rip)        # 605118 <__sprintf_chk@GLIBC_2.3.4>
  400e86:	68 20 00 00 00       	pushq  $0x20
  400e8b:	e9 e0 fd ff ff       	jmpq   400c70 <.plt>

0000000000400e90 <socket@plt>:
  400e90:	ff 25 8a 42 20 00    	jmpq   *0x20428a(%rip)        # 605120 <socket@GLIBC_2.2.5>
  400e96:	68 21 00 00 00       	pushq  $0x21
  400e9b:	e9 d0 fd ff ff       	jmpq   400c70 <.plt>

Disassembly of section .plt.got:

0000000000400ea0 <__gmon_start__@plt>:
  400ea0:	ff 25 52 41 20 00    	jmpq   *0x204152(%rip)        # 604ff8 <__gmon_start__>
  400ea6:	66 90                	xchg   %ax,%ax

Disassembly of section .text:

0000000000400eb0 <_start>:
  400eb0:	31 ed                	xor    %ebp,%ebp
  400eb2:	49 89 d1             	mov    %rdx,%r9
  400eb5:	5e                   	pop    %rsi
  400eb6:	48 89 e2             	mov    %rsp,%rdx
  400eb9:	48 83 e4 f0          	and    $0xfffffffffffffff0,%rsp
  400ebd:	50                   	push   %rax
  400ebe:	54                   	push   %rsp
  400ebf:	49 c7 c0 80 2f 40 00 	mov    $0x402f80,%r8
  400ec6:	48 c7 c1 10 2f 40 00 	mov    $0x402f10,%rcx
  400ecd:	48 c7 c7 b5 11 40 00 	mov    $0x4011b5,%rdi
  400ed4:	e8 77 fe ff ff       	callq  400d50 <__libc_start_main@plt>
  400ed9:	f4                   	hlt    
  400eda:	66 0f 1f 44 00 00    	nopw   0x0(%rax,%rax,1)

0000000000400ee0 <deregister_tm_clones>:
  400ee0:	b8 b7 54 60 00       	mov    $0x6054b7,%eax
  400ee5:	55                   	push   %rbp
  400ee6:	48 2d b0 54 60 00    	sub    $0x6054b0,%rax
  400eec:	48 83 f8 0e          	cmp    $0xe,%rax
  400ef0:	48 89 e5             	mov    %rsp,%rbp
  400ef3:	76 1b                	jbe    400f10 <deregister_tm_clones+0x30>
  400ef5:	b8 00 00 00 00       	mov    $0x0,%eax
  400efa:	48 85 c0             	test   %rax,%rax
  400efd:	74 11                	je     400f10 <deregister_tm_clones+0x30>
  400eff:	5d                   	pop    %rbp
  400f00:	bf b0 54 60 00       	mov    $0x6054b0,%edi
  400f05:	ff e0                	jmpq   *%rax
  400f07:	66 0f 1f 84 00 00 00 	nopw   0x0(%rax,%rax,1)
  400f0e:	00 00 
  400f10:	5d                   	pop    %rbp
  400f11:	c3                   	retq   
  400f12:	0f 1f 40 00          	nopl   0x0(%rax)
  400f16:	66 2e 0f 1f 84 00 00 	nopw   %cs:0x0(%rax,%rax,1)
  400f1d:	00 00 00 

0000000000400f20 <register_tm_clones>:
  400f20:	be b0 54 60 00       	mov    $0x6054b0,%esi
  400f25:	55                   	push   %rbp
  400f26:	48 81 ee b0 54 60 00 	sub    $0x6054b0,%rsi
  400f2d:	48 c1 fe 03          	sar    $0x3,%rsi
  400f31:	48 89 e5             	mov    %rsp,%rbp
  400f34:	48 89 f0             	mov    %rsi,%rax
  400f37:	48 c1 e8 3f          	shr    $0x3f,%rax
  400f3b:	48 01 c6             	add    %rax,%rsi
  400f3e:	48 d1 fe             	sar    %rsi
  400f41:	74 15                	je     400f58 <register_tm_clones+0x38>
  400f43:	b8 00 00 00 00       	mov    $0x0,%eax
  400f48:	48 85 c0             	test   %rax,%rax
  400f4b:	74 0b                	je     400f58 <register_tm_clones+0x38>
  400f4d:	5d                   	pop    %rbp
  400f4e:	bf b0 54 60 00       	mov    $0x6054b0,%edi
  400f53:	ff e0                	jmpq   *%rax
  400f55:	0f 1f 00             	nopl   (%rax)
  400f58:	5d                   	pop    %rbp
  400f59:	c3                   	retq   
  400f5a:	66 0f 1f 44 00 00    	nopw   0x0(%rax,%rax,1)

0000000000400f60 <__do_global_dtors_aux>:
  400f60:	80 3d 81 45 20 00 00 	cmpb   $0x0,0x204581(%rip)        # 6054e8 <completed.7594>
  400f67:	75 11                	jne    400f7a <__do_global_dtors_aux+0x1a>
  400f69:	55                   	push   %rbp
  400f6a:	48 89 e5             	mov    %rsp,%rbp
  400f6d:	e8 6e ff ff ff       	callq  400ee0 <deregister_tm_clones>
  400f72:	5d                   	pop    %rbp
  400f73:	c6 05 6e 45 20 00 01 	movb   $0x1,0x20456e(%rip)        # 6054e8 <completed.7594>
  400f7a:	f3 c3                	repz retq 
  400f7c:	0f 1f 40 00          	nopl   0x0(%rax)

0000000000400f80 <frame_dummy>:
  400f80:	bf 20 4e 60 00       	mov    $0x604e20,%edi
  400f85:	48 83 3f 00          	cmpq   $0x0,(%rdi)
  400f89:	75 05                	jne    400f90 <frame_dummy+0x10>
  400f8b:	eb 93                	jmp    400f20 <register_tm_clones>
  400f8d:	0f 1f 00             	nopl   (%rax)
  400f90:	b8 00 00 00 00       	mov    $0x0,%eax
  400f95:	48 85 c0             	test   %rax,%rax
  400f98:	74 f1                	je     400f8b <frame_dummy+0xb>
  400f9a:	55                   	push   %rbp
  400f9b:	48 89 e5             	mov    %rsp,%rbp
  400f9e:	ff d0                	callq  *%rax
  400fa0:	5d                   	pop    %rbp
  400fa1:	e9 7a ff ff ff       	jmpq   400f20 <register_tm_clones>

0000000000400fa6 <usage>:
  400fa6:	48 83 ec 08          	sub    $0x8,%rsp
  400faa:	48 89 fa             	mov    %rdi,%rdx
  400fad:	83 3d 74 45 20 00 00 	cmpl   $0x0,0x204574(%rip)        # 605528 <is_checker>
  400fb4:	74 3e                	je     400ff4 <usage+0x4e>
  400fb6:	be 98 2f 40 00       	mov    $0x402f98,%esi
  400fbb:	bf 01 00 00 00       	mov    $0x1,%edi
  400fc0:	b8 00 00 00 00       	mov    $0x0,%eax
  400fc5:	e8 36 fe ff ff       	callq  400e00 <__printf_chk@plt>
  400fca:	bf d0 2f 40 00       	mov    $0x402fd0,%edi
  400fcf:	e8 fc fc ff ff       	callq  400cd0 <puts@plt>
  400fd4:	bf 48 31 40 00       	mov    $0x403148,%edi
  400fd9:	e8 f2 fc ff ff       	callq  400cd0 <puts@plt>
  400fde:	bf f8 2f 40 00       	mov    $0x402ff8,%edi
  400fe3:	e8 e8 fc ff ff       	callq  400cd0 <puts@plt>
  400fe8:	bf 62 31 40 00       	mov    $0x403162,%edi
  400fed:	e8 de fc ff ff       	callq  400cd0 <puts@plt>
  400ff2:	eb 32                	jmp    401026 <usage+0x80>
  400ff4:	be 7e 31 40 00       	mov    $0x40317e,%esi
  400ff9:	bf 01 00 00 00       	mov    $0x1,%edi
  400ffe:	b8 00 00 00 00       	mov    $0x0,%eax
  401003:	e8 f8 fd ff ff       	callq  400e00 <__printf_chk@plt>
  401008:	bf 20 30 40 00       	mov    $0x403020,%edi
  40100d:	e8 be fc ff ff       	callq  400cd0 <puts@plt>
  401012:	bf 48 30 40 00       	mov    $0x403048,%edi
  401017:	e8 b4 fc ff ff       	callq  400cd0 <puts@plt>
  40101c:	bf 9c 31 40 00       	mov    $0x40319c,%edi
  401021:	e8 aa fc ff ff       	callq  400cd0 <puts@plt>
  401026:	bf 00 00 00 00       	mov    $0x0,%edi
  40102b:	e8 20 fe ff ff       	callq  400e50 <exit@plt>

0000000000401030 <initialize_target>:
  401030:	55                   	push   %rbp
  401031:	53                   	push   %rbx
  401032:	48 81 ec 18 21 00 00 	sub    $0x2118,%rsp
  401039:	89 f5                	mov    %esi,%ebp
  40103b:	64 48 8b 04 25 28 00 	mov    %fs:0x28,%rax
  401042:	00 00 
  401044:	48 89 84 24 08 21 00 	mov    %rax,0x2108(%rsp)
  40104b:	00 
  40104c:	31 c0                	xor    %eax,%eax
  40104e:	89 3d c4 44 20 00    	mov    %edi,0x2044c4(%rip)        # 605518 <check_level>
  401054:	8b 3d 0e 41 20 00    	mov    0x20410e(%rip),%edi        # 605168 <target_id>
  40105a:	e8 86 1e 00 00       	callq  402ee5 <gencookie>
  40105f:	89 05 bf 44 20 00    	mov    %eax,0x2044bf(%rip)        # 605524 <cookie>
  401065:	89 c7                	mov    %eax,%edi
  401067:	e8 79 1e 00 00       	callq  402ee5 <gencookie>
  40106c:	89 05 ae 44 20 00    	mov    %eax,0x2044ae(%rip)        # 605520 <authkey>
  401072:	8b 05 f0 40 20 00    	mov    0x2040f0(%rip),%eax        # 605168 <target_id>
  401078:	8d 78 01             	lea    0x1(%rax),%edi
  40107b:	e8 20 fc ff ff       	callq  400ca0 <srandom@plt>
  401080:	e8 3b fd ff ff       	callq  400dc0 <random@plt>
  401085:	89 c7                	mov    %eax,%edi
  401087:	e8 03 03 00 00       	callq  40138f <scramble>
  40108c:	89 c3                	mov    %eax,%ebx
  40108e:	85 ed                	test   %ebp,%ebp
  401090:	74 18                	je     4010aa <initialize_target+0x7a>
  401092:	bf 00 00 00 00       	mov    $0x0,%edi
  401097:	e8 14 fd ff ff       	callq  400db0 <time@plt>
  40109c:	89 c7                	mov    %eax,%edi
  40109e:	e8 fd fb ff ff       	callq  400ca0 <srandom@plt>
  4010a3:	e8 18 fd ff ff       	callq  400dc0 <random@plt>
  4010a8:	eb 05                	jmp    4010af <initialize_target+0x7f>
  4010aa:	b8 00 00 00 00       	mov    $0x0,%eax
  4010af:	01 c3                	add    %eax,%ebx
  4010b1:	0f b7 db             	movzwl %bx,%ebx
  4010b4:	8d 04 dd 00 01 00 00 	lea    0x100(,%rbx,8),%eax
  4010bb:	89 c0                	mov    %eax,%eax
  4010bd:	48 89 05 dc 43 20 00 	mov    %rax,0x2043dc(%rip)        # 6054a0 <buf_offset>
  4010c4:	c6 05 7d 50 20 00 72 	movb   $0x72,0x20507d(%rip)        # 606148 <target_prefix>
  4010cb:	83 3d d6 43 20 00 00 	cmpl   $0x0,0x2043d6(%rip)        # 6054a8 <notify>
  4010d2:	0f 84 bb 00 00 00    	je     401193 <initialize_target+0x163>
  4010d8:	83 3d 49 44 20 00 00 	cmpl   $0x0,0x204449(%rip)        # 605528 <is_checker>
  4010df:	0f 85 ae 00 00 00    	jne    401193 <initialize_target+0x163>
  4010e5:	be 00 01 00 00       	mov    $0x100,%esi
  4010ea:	48 89 e7             	mov    %rsp,%rdi
  4010ed:	e8 4e fd ff ff       	callq  400e40 <gethostname@plt>
  4010f2:	85 c0                	test   %eax,%eax
  4010f4:	74 25                	je     40111b <initialize_target+0xeb>
  4010f6:	bf 78 30 40 00       	mov    $0x403078,%edi
  4010fb:	e8 d0 fb ff ff       	callq  400cd0 <puts@plt>
  401100:	bf 08 00 00 00       	mov    $0x8,%edi
  401105:	e8 46 fd ff ff       	callq  400e50 <exit@plt>
  40110a:	48 89 e6             	mov    %rsp,%rsi
  40110d:	e8 6e fb ff ff       	callq  400c80 <strcasecmp@plt>
  401112:	85 c0                	test   %eax,%eax
  401114:	74 21                	je     401137 <initialize_target+0x107>
  401116:	83 c3 01             	add    $0x1,%ebx
  401119:	eb 05                	jmp    401120 <initialize_target+0xf0>
  40111b:	bb 00 00 00 00       	mov    $0x0,%ebx
  401120:	48 63 c3             	movslq %ebx,%rax
  401123:	48 8b 3c c5 80 51 60 	mov    0x605180(,%rax,8),%rdi
  40112a:	00 
  40112b:	48 85 ff             	test   %rdi,%rdi
  40112e:	75 da                	jne    40110a <initialize_target+0xda>
  401130:	b8 00 00 00 00       	mov    $0x0,%eax
  401135:	eb 05                	jmp    40113c <initialize_target+0x10c>
  401137:	b8 01 00 00 00       	mov    $0x1,%eax
  40113c:	85 c0                	test   %eax,%eax
  40113e:	75 1c                	jne    40115c <initialize_target+0x12c>
  401140:	48 89 e2             	mov    %rsp,%rdx
  401143:	be b0 30 40 00       	mov    $0x4030b0,%esi
  401148:	bf 01 00 00 00       	mov    $0x1,%edi
  40114d:	e8 ae fc ff ff       	callq  400e00 <__printf_chk@plt>
  401152:	bf 08 00 00 00       	mov    $0x8,%edi
  401157:	e8 f4 fc ff ff       	callq  400e50 <exit@plt>
  40115c:	48 8d bc 24 00 01 00 	lea    0x100(%rsp),%rdi
  401163:	00 
  401164:	e8 e6 1a 00 00       	callq  402c4f <init_driver>
  401169:	85 c0                	test   %eax,%eax
  40116b:	79 26                	jns    401193 <initialize_target+0x163>
  40116d:	48 8d 94 24 00 01 00 	lea    0x100(%rsp),%rdx
  401174:	00 
  401175:	be f0 30 40 00       	mov    $0x4030f0,%esi
  40117a:	bf 01 00 00 00       	mov    $0x1,%edi
  40117f:	b8 00 00 00 00       	mov    $0x0,%eax
  401184:	e8 77 fc ff ff       	callq  400e00 <__printf_chk@plt>
  401189:	bf 08 00 00 00       	mov    $0x8,%edi
  40118e:	e8 bd fc ff ff       	callq  400e50 <exit@plt>
  401193:	48 8b 84 24 08 21 00 	mov    0x2108(%rsp),%rax
  40119a:	00 
  40119b:	64 48 33 04 25 28 00 	xor    %fs:0x28,%rax
  4011a2:	00 00 
  4011a4:	74 05                	je     4011ab <initialize_target+0x17b>
  4011a6:	e8 45 fb ff ff       	callq  400cf0 <__stack_chk_fail@plt>
  4011ab:	48 81 c4 18 21 00 00 	add    $0x2118,%rsp
  4011b2:	5b                   	pop    %rbx
  4011b3:	5d                   	pop    %rbp
  4011b4:	c3                   	retq   

00000000004011b5 <main>:
  4011b5:	41 56                	push   %r14
  4011b7:	41 55                	push   %r13
  4011b9:	41 54                	push   %r12
  4011bb:	55                   	push   %rbp
  4011bc:	53                   	push   %rbx
  4011bd:	41 89 fc             	mov    %edi,%r12d
  4011c0:	48 89 f3             	mov    %rsi,%rbx
  4011c3:	be 8a 1f 40 00       	mov    $0x401f8a,%esi
  4011c8:	bf 0b 00 00 00       	mov    $0xb,%edi
  4011cd:	e8 8e fb ff ff       	callq  400d60 <signal@plt>
  4011d2:	be 3c 1f 40 00       	mov    $0x401f3c,%esi
  4011d7:	bf 07 00 00 00       	mov    $0x7,%edi
  4011dc:	e8 7f fb ff ff       	callq  400d60 <signal@plt>
  4011e1:	be d8 1f 40 00       	mov    $0x401fd8,%esi
  4011e6:	bf 04 00 00 00       	mov    $0x4,%edi
  4011eb:	e8 70 fb ff ff       	callq  400d60 <signal@plt>
  4011f0:	83 3d 31 43 20 00 00 	cmpl   $0x0,0x204331(%rip)        # 605528 <is_checker>
  4011f7:	74 20                	je     401219 <main+0x64>
  4011f9:	be 26 20 40 00       	mov    $0x402026,%esi
  4011fe:	bf 0e 00 00 00       	mov    $0xe,%edi
  401203:	e8 58 fb ff ff       	callq  400d60 <signal@plt>
  401208:	bf 05 00 00 00       	mov    $0x5,%edi
  40120d:	e8 0e fb ff ff       	callq  400d20 <alarm@plt>
  401212:	bd ba 31 40 00       	mov    $0x4031ba,%ebp
  401217:	eb 05                	jmp    40121e <main+0x69>
  401219:	bd b5 31 40 00       	mov    $0x4031b5,%ebp
  40121e:	48 8b 05 9b 42 20 00 	mov    0x20429b(%rip),%rax        # 6054c0 <stdin@@GLIBC_2.2.5>
  401225:	48 89 05 e4 42 20 00 	mov    %rax,0x2042e4(%rip)        # 605510 <infile>
  40122c:	41 bd 00 00 00 00    	mov    $0x0,%r13d
  401232:	41 be 00 00 00 00    	mov    $0x0,%r14d
  401238:	e9 c6 00 00 00       	jmpq   401303 <main+0x14e>
  40123d:	83 e8 61             	sub    $0x61,%eax
  401240:	3c 10                	cmp    $0x10,%al
  401242:	0f 87 9c 00 00 00    	ja     4012e4 <main+0x12f>
  401248:	0f b6 c0             	movzbl %al,%eax
  40124b:	ff 24 c5 00 32 40 00 	jmpq   *0x403200(,%rax,8)
  401252:	48 8b 3b             	mov    (%rbx),%rdi
  401255:	e8 4c fd ff ff       	callq  400fa6 <usage>
  40125a:	be ad 34 40 00       	mov    $0x4034ad,%esi
  40125f:	48 8b 3d 62 42 20 00 	mov    0x204262(%rip),%rdi        # 6054c8 <optarg@@GLIBC_2.2.5>
  401266:	e8 a5 fb ff ff       	callq  400e10 <fopen@plt>
  40126b:	48 89 05 9e 42 20 00 	mov    %rax,0x20429e(%rip)        # 605510 <infile>
  401272:	48 85 c0             	test   %rax,%rax
  401275:	0f 85 88 00 00 00    	jne    401303 <main+0x14e>
  40127b:	48 8b 0d 46 42 20 00 	mov    0x204246(%rip),%rcx        # 6054c8 <optarg@@GLIBC_2.2.5>
  401282:	ba c2 31 40 00       	mov    $0x4031c2,%edx
  401287:	be 01 00 00 00       	mov    $0x1,%esi
  40128c:	48 8b 3d 4d 42 20 00 	mov    0x20424d(%rip),%rdi        # 6054e0 <stderr@@GLIBC_2.2.5>
  401293:	e8 d8 fb ff ff       	callq  400e70 <__fprintf_chk@plt>
  401298:	b8 01 00 00 00       	mov    $0x1,%eax
  40129d:	e9 e4 00 00 00       	jmpq   401386 <main+0x1d1>
  4012a2:	ba 10 00 00 00       	mov    $0x10,%edx
  4012a7:	be 00 00 00 00       	mov    $0x0,%esi
  4012ac:	48 8b 3d 15 42 20 00 	mov    0x204215(%rip),%rdi        # 6054c8 <optarg@@GLIBC_2.2.5>
  4012b3:	e8 78 fb ff ff       	callq  400e30 <strtoul@plt>
  4012b8:	41 89 c6             	mov    %eax,%r14d
  4012bb:	eb 46                	jmp    401303 <main+0x14e>
  4012bd:	ba 0a 00 00 00       	mov    $0xa,%edx
  4012c2:	be 00 00 00 00       	mov    $0x0,%esi
  4012c7:	48 8b 3d fa 41 20 00 	mov    0x2041fa(%rip),%rdi        # 6054c8 <optarg@@GLIBC_2.2.5>
  4012ce:	e8 bd fa ff ff       	callq  400d90 <strtol@plt>
  4012d3:	41 89 c5             	mov    %eax,%r13d
  4012d6:	eb 2b                	jmp    401303 <main+0x14e>
  4012d8:	c7 05 c6 41 20 00 00 	movl   $0x0,0x2041c6(%rip)        # 6054a8 <notify>
  4012df:	00 00 00 
  4012e2:	eb 1f                	jmp    401303 <main+0x14e>
  4012e4:	0f be d2             	movsbl %dl,%edx
  4012e7:	be df 31 40 00       	mov    $0x4031df,%esi
  4012ec:	bf 01 00 00 00       	mov    $0x1,%edi
  4012f1:	b8 00 00 00 00       	mov    $0x0,%eax
  4012f6:	e8 05 fb ff ff       	callq  400e00 <__printf_chk@plt>
  4012fb:	48 8b 3b             	mov    (%rbx),%rdi
  4012fe:	e8 a3 fc ff ff       	callq  400fa6 <usage>
  401303:	48 89 ea             	mov    %rbp,%rdx
  401306:	48 89 de             	mov    %rbx,%rsi
  401309:	44 89 e7             	mov    %r12d,%edi
  40130c:	e8 0f fb ff ff       	callq  400e20 <getopt@plt>
  401311:	89 c2                	mov    %eax,%edx
  401313:	3c ff                	cmp    $0xff,%al
  401315:	0f 85 22 ff ff ff    	jne    40123d <main+0x88>
  40131b:	be 01 00 00 00       	mov    $0x1,%esi
  401320:	44 89 ef             	mov    %r13d,%edi
  401323:	e8 08 fd ff ff       	callq  401030 <initialize_target>
  401328:	83 3d f9 41 20 00 00 	cmpl   $0x0,0x2041f9(%rip)        # 605528 <is_checker>
  40132f:	74 2a                	je     40135b <main+0x1a6>
  401331:	44 3b 35 e8 41 20 00 	cmp    0x2041e8(%rip),%r14d        # 605520 <authkey>
  401338:	74 21                	je     40135b <main+0x1a6>
  40133a:	44 89 f2             	mov    %r14d,%edx
  40133d:	be 18 31 40 00       	mov    $0x403118,%esi
  401342:	bf 01 00 00 00       	mov    $0x1,%edi
  401347:	b8 00 00 00 00       	mov    $0x0,%eax
  40134c:	e8 af fa ff ff       	callq  400e00 <__printf_chk@plt>
  401351:	b8 00 00 00 00       	mov    $0x0,%eax
  401356:	e8 7d 08 00 00       	callq  401bd8 <check_fail>
  40135b:	8b 15 c3 41 20 00    	mov    0x2041c3(%rip),%edx        # 605524 <cookie>
  401361:	be f2 31 40 00       	mov    $0x4031f2,%esi
  401366:	bf 01 00 00 00       	mov    $0x1,%edi
  40136b:	b8 00 00 00 00       	mov    $0x0,%eax
  401370:	e8 8b fa ff ff       	callq  400e00 <__printf_chk@plt>
  401375:	48 8b 3d 24 41 20 00 	mov    0x204124(%rip),%rdi        # 6054a0 <buf_offset>
  40137c:	e8 f8 0c 00 00       	callq  402079 <launch>
  401381:	b8 00 00 00 00       	mov    $0x0,%eax
  401386:	5b                   	pop    %rbx
  401387:	5d                   	pop    %rbp
  401388:	41 5c                	pop    %r12
  40138a:	41 5d                	pop    %r13
  40138c:	41 5e                	pop    %r14
  40138e:	c3                   	retq   

000000000040138f <scramble>:
  40138f:	48 83 ec 38          	sub    $0x38,%rsp
  401393:	64 48 8b 04 25 28 00 	mov    %fs:0x28,%rax
  40139a:	00 00 
  40139c:	48 89 44 24 28       	mov    %rax,0x28(%rsp)
  4013a1:	31 c0                	xor    %eax,%eax
  4013a3:	eb 10                	jmp    4013b5 <scramble+0x26>
  4013a5:	69 d0 e9 88 00 00    	imul   $0x88e9,%eax,%edx
  4013ab:	01 fa                	add    %edi,%edx
  4013ad:	89 c1                	mov    %eax,%ecx
  4013af:	89 14 8c             	mov    %edx,(%rsp,%rcx,4)
  4013b2:	83 c0 01             	add    $0x1,%eax
  4013b5:	83 f8 09             	cmp    $0x9,%eax
  4013b8:	76 eb                	jbe    4013a5 <scramble+0x16>
  4013ba:	8b 44 24 20          	mov    0x20(%rsp),%eax
  4013be:	69 c0 0a ba 00 00    	imul   $0xba0a,%eax,%eax
  4013c4:	89 44 24 20          	mov    %eax,0x20(%rsp)
  4013c8:	8b 44 24 24          	mov    0x24(%rsp),%eax
  4013cc:	69 c0 c8 69 00 00    	imul   $0x69c8,%eax,%eax
  4013d2:	89 44 24 24          	mov    %eax,0x24(%rsp)
  4013d6:	8b 44 24 04          	mov    0x4(%rsp),%eax
  4013da:	69 c0 5e 30 00 00    	imul   $0x305e,%eax,%eax
  4013e0:	89 44 24 04          	mov    %eax,0x4(%rsp)
  4013e4:	8b 44 24 04          	mov    0x4(%rsp),%eax
  4013e8:	69 c0 6a 34 00 00    	imul   $0x346a,%eax,%eax
  4013ee:	89 44 24 04          	mov    %eax,0x4(%rsp)
  4013f2:	8b 44 24 10          	mov    0x10(%rsp),%eax
  4013f6:	69 c0 15 b3 00 00    	imul   $0xb315,%eax,%eax
  4013fc:	89 44 24 10          	mov    %eax,0x10(%rsp)
  401400:	8b 44 24 0c          	mov    0xc(%rsp),%eax
  401404:	69 c0 b8 d0 00 00    	imul   $0xd0b8,%eax,%eax
  40140a:	89 44 24 0c          	mov    %eax,0xc(%rsp)
  40140e:	8b 44 24 10          	mov    0x10(%rsp),%eax
  401412:	69 c0 82 1f 00 00    	imul   $0x1f82,%eax,%eax
  401418:	89 44 24 10          	mov    %eax,0x10(%rsp)
  40141c:	8b 44 24 08          	mov    0x8(%rsp),%eax
  401420:	69 c0 e2 3c 00 00    	imul   $0x3ce2,%eax,%eax
  401426:	89 44 24 08          	mov    %eax,0x8(%rsp)
  40142a:	8b 44 24 20          	mov    0x20(%rsp),%eax
  40142e:	69 c0 11 42 00 00    	imul   $0x4211,%eax,%eax
  401434:	89 44 24 20          	mov    %eax,0x20(%rsp)
  401438:	8b 44 24 04          	mov    0x4(%rsp),%eax
  40143c:	69 c0 3a ef 00 00    	imul   $0xef3a,%eax,%eax
  401442:	89 44 24 04          	mov    %eax,0x4(%rsp)
  401446:	8b 44 24 24          	mov    0x24(%rsp),%eax
  40144a:	69 c0 7f f7 00 00    	imul   $0xf77f,%eax,%eax
  401450:	89 44 24 24          	mov    %eax,0x24(%rsp)
  401454:	8b 44 24 24          	mov    0x24(%rsp),%eax
  401458:	69 c0 9d 13 00 00    	imul   $0x139d,%eax,%eax
  40145e:	89 44 24 24          	mov    %eax,0x24(%rsp)
  401462:	8b 44 24 18          	mov    0x18(%rsp),%eax
  401466:	69 c0 f2 26 00 00    	imul   $0x26f2,%eax,%eax
  40146c:	89 44 24 18          	mov    %eax,0x18(%rsp)
  401470:	8b 44 24 1c          	mov    0x1c(%rsp),%eax
  401474:	69 c0 9e 3f 00 00    	imul   $0x3f9e,%eax,%eax
  40147a:	89 44 24 1c          	mov    %eax,0x1c(%rsp)
  40147e:	8b 04 24             	mov    (%rsp),%eax
  401481:	69 c0 45 20 00 00    	imul   $0x2045,%eax,%eax
  401487:	89 04 24             	mov    %eax,(%rsp)
  40148a:	8b 44 24 0c          	mov    0xc(%rsp),%eax
  40148e:	69 c0 a3 c8 00 00    	imul   $0xc8a3,%eax,%eax
  401494:	89 44 24 0c          	mov    %eax,0xc(%rsp)
  401498:	8b 44 24 1c          	mov    0x1c(%rsp),%eax
  40149c:	69 c0 75 a3 00 00    	imul   $0xa375,%eax,%eax
  4014a2:	89 44 24 1c          	mov    %eax,0x1c(%rsp)
  4014a6:	8b 44 24 04          	mov    0x4(%rsp),%eax
  4014aa:	69 c0 87 c2 00 00    	imul   $0xc287,%eax,%eax
  4014b0:	89 44 24 04          	mov    %eax,0x4(%rsp)
  4014b4:	8b 44 24 0c          	mov    0xc(%rsp),%eax
  4014b8:	69 c0 ce 93 00 00    	imul   $0x93ce,%eax,%eax
  4014be:	89 44 24 0c          	mov    %eax,0xc(%rsp)
  4014c2:	8b 04 24             	mov    (%rsp),%eax
  4014c5:	69 c0 e8 41 00 00    	imul   $0x41e8,%eax,%eax
  4014cb:	89 04 24             	mov    %eax,(%rsp)
  4014ce:	8b 44 24 08          	mov    0x8(%rsp),%eax
  4014d2:	69 c0 73 c0 00 00    	imul   $0xc073,%eax,%eax
  4014d8:	89 44 24 08          	mov    %eax,0x8(%rsp)
  4014dc:	8b 44 24 0c          	mov    0xc(%rsp),%eax
  4014e0:	69 c0 1f 44 00 00    	imul   $0x441f,%eax,%eax
  4014e6:	89 44 24 0c          	mov    %eax,0xc(%rsp)
  4014ea:	8b 44 24 1c          	mov    0x1c(%rsp),%eax
  4014ee:	69 c0 ae 19 00 00    	imul   $0x19ae,%eax,%eax
  4014f4:	89 44 24 1c          	mov    %eax,0x1c(%rsp)
  4014f8:	8b 44 24 18          	mov    0x18(%rsp),%eax
  4014fc:	69 c0 19 30 00 00    	imul   $0x3019,%eax,%eax
  401502:	89 44 24 18          	mov    %eax,0x18(%rsp)
  401506:	8b 44 24 24          	mov    0x24(%rsp),%eax
  40150a:	69 c0 9e 47 00 00    	imul   $0x479e,%eax,%eax
  401510:	89 44 24 24          	mov    %eax,0x24(%rsp)
  401514:	8b 44 24 1c          	mov    0x1c(%rsp),%eax
  401518:	69 c0 6b a7 00 00    	imul   $0xa76b,%eax,%eax
  40151e:	89 44 24 1c          	mov    %eax,0x1c(%rsp)
  401522:	8b 04 24             	mov    (%rsp),%eax
  401525:	69 c0 4f d9 00 00    	imul   $0xd94f,%eax,%eax
  40152b:	89 04 24             	mov    %eax,(%rsp)
  40152e:	8b 44 24 14          	mov    0x14(%rsp),%eax
  401532:	69 c0 8a 83 00 00    	imul   $0x838a,%eax,%eax
  401538:	89 44 24 14          	mov    %eax,0x14(%rsp)
  40153c:	8b 44 24 14          	mov    0x14(%rsp),%eax
  401540:	69 c0 26 a6 00 00    	imul   $0xa626,%eax,%eax
  401546:	89 44 24 14          	mov    %eax,0x14(%rsp)
  40154a:	8b 44 24 24          	mov    0x24(%rsp),%eax
  40154e:	69 c0 fa 3f 00 00    	imul   $0x3ffa,%eax,%eax
  401554:	89 44 24 24          	mov    %eax,0x24(%rsp)
  401558:	8b 44 24 0c          	mov    0xc(%rsp),%eax
  40155c:	69 c0 15 37 00 00    	imul   $0x3715,%eax,%eax
  401562:	89 44 24 0c          	mov    %eax,0xc(%rsp)
  401566:	8b 44 24 18          	mov    0x18(%rsp),%eax
  40156a:	69 c0 bb a0 00 00    	imul   $0xa0bb,%eax,%eax
  401570:	89 44 24 18          	mov    %eax,0x18(%rsp)
  401574:	8b 44 24 20          	mov    0x20(%rsp),%eax
  401578:	69 c0 08 3b 00 00    	imul   $0x3b08,%eax,%eax
  40157e:	89 44 24 20          	mov    %eax,0x20(%rsp)
  401582:	8b 44 24 0c          	mov    0xc(%rsp),%eax
  401586:	69 c0 5e ae 00 00    	imul   $0xae5e,%eax,%eax
  40158c:	89 44 24 0c          	mov    %eax,0xc(%rsp)
  401590:	8b 44 24 08          	mov    0x8(%rsp),%eax
  401594:	69 c0 33 5a 00 00    	imul   $0x5a33,%eax,%eax
  40159a:	89 44 24 08          	mov    %eax,0x8(%rsp)
  40159e:	8b 04 24             	mov    (%rsp),%eax
  4015a1:	69 c0 bb 15 00 00    	imul   $0x15bb,%eax,%eax
  4015a7:	89 04 24             	mov    %eax,(%rsp)
  4015aa:	8b 44 24 08          	mov    0x8(%rsp),%eax
  4015ae:	69 c0 e7 02 00 00    	imul   $0x2e7,%eax,%eax
  4015b4:	89 44 24 08          	mov    %eax,0x8(%rsp)
  4015b8:	8b 44 24 14          	mov    0x14(%rsp),%eax
  4015bc:	69 c0 9b fa 00 00    	imul   $0xfa9b,%eax,%eax
  4015c2:	89 44 24 14          	mov    %eax,0x14(%rsp)
  4015c6:	8b 04 24             	mov    (%rsp),%eax
  4015c9:	69 c0 dc da 00 00    	imul   $0xdadc,%eax,%eax
  4015cf:	89 04 24             	mov    %eax,(%rsp)
  4015d2:	8b 44 24 20          	mov    0x20(%rsp),%eax
  4015d6:	69 c0 55 78 00 00    	imul   $0x7855,%eax,%eax
  4015dc:	89 44 24 20          	mov    %eax,0x20(%rsp)
  4015e0:	8b 44 24 08          	mov    0x8(%rsp),%eax
  4015e4:	69 c0 08 4a 00 00    	imul   $0x4a08,%eax,%eax
  4015ea:	89 44 24 08          	mov    %eax,0x8(%rsp)
  4015ee:	8b 44 24 04          	mov    0x4(%rsp),%eax
  4015f2:	69 c0 97 61 00 00    	imul   $0x6197,%eax,%eax
  4015f8:	89 44 24 04          	mov    %eax,0x4(%rsp)
  4015fc:	8b 44 24 14          	mov    0x14(%rsp),%eax
  401600:	69 c0 c8 da 00 00    	imul   $0xdac8,%eax,%eax
  401606:	89 44 24 14          	mov    %eax,0x14(%rsp)
  40160a:	8b 44 24 04          	mov    0x4(%rsp),%eax
  40160e:	69 c0 98 23 00 00    	imul   $0x2398,%eax,%eax
  401614:	89 44 24 04          	mov    %eax,0x4(%rsp)
  401618:	8b 44 24 08          	mov    0x8(%rsp),%eax
  40161c:	69 c0 4a a8 00 00    	imul   $0xa84a,%eax,%eax
  401622:	89 44 24 08          	mov    %eax,0x8(%rsp)
  401626:	8b 04 24             	mov    (%rsp),%eax
  401629:	69 c0 5a 47 00 00    	imul   $0x475a,%eax,%eax
  40162f:	89 04 24             	mov    %eax,(%rsp)
  401632:	8b 44 24 1c          	mov    0x1c(%rsp),%eax
  401636:	69 c0 30 6c 00 00    	imul   $0x6c30,%eax,%eax
  40163c:	89 44 24 1c          	mov    %eax,0x1c(%rsp)
  401640:	8b 04 24             	mov    (%rsp),%eax
  401643:	69 c0 ea b9 00 00    	imul   $0xb9ea,%eax,%eax
  401649:	89 04 24             	mov    %eax,(%rsp)
  40164c:	8b 44 24 18          	mov    0x18(%rsp),%eax
  401650:	69 c0 57 4b 00 00    	imul   $0x4b57,%eax,%eax
  401656:	89 44 24 18          	mov    %eax,0x18(%rsp)
  40165a:	8b 04 24             	mov    (%rsp),%eax
  40165d:	69 c0 0f 76 00 00    	imul   $0x760f,%eax,%eax
  401663:	89 04 24             	mov    %eax,(%rsp)
  401666:	8b 04 24             	mov    (%rsp),%eax
  401669:	69 c0 8f 58 00 00    	imul   $0x588f,%eax,%eax
  40166f:	89 04 24             	mov    %eax,(%rsp)
  401672:	8b 44 24 20          	mov    0x20(%rsp),%eax
  401676:	69 c0 30 c0 00 00    	imul   $0xc030,%eax,%eax
  40167c:	89 44 24 20          	mov    %eax,0x20(%rsp)
  401680:	8b 44 24 1c          	mov    0x1c(%rsp),%eax
  401684:	69 c0 a5 e5 00 00    	imul   $0xe5a5,%eax,%eax
  40168a:	89 44 24 1c          	mov    %eax,0x1c(%rsp)
  40168e:	8b 44 24 0c          	mov    0xc(%rsp),%eax
  401692:	69 c0 0b 78 00 00    	imul   $0x780b,%eax,%eax
  401698:	89 44 24 0c          	mov    %eax,0xc(%rsp)
  40169c:	8b 44 24 24          	mov    0x24(%rsp),%eax
  4016a0:	69 c0 80 e5 00 00    	imul   $0xe580,%eax,%eax
  4016a6:	89 44 24 24          	mov    %eax,0x24(%rsp)
  4016aa:	8b 04 24             	mov    (%rsp),%eax
  4016ad:	69 c0 fb e2 00 00    	imul   $0xe2fb,%eax,%eax
  4016b3:	89 04 24             	mov    %eax,(%rsp)
  4016b6:	8b 44 24 20          	mov    0x20(%rsp),%eax
  4016ba:	69 c0 21 10 00 00    	imul   $0x1021,%eax,%eax
  4016c0:	89 44 24 20          	mov    %eax,0x20(%rsp)
  4016c4:	8b 44 24 10          	mov    0x10(%rsp),%eax
  4016c8:	69 c0 df 52 00 00    	imul   $0x52df,%eax,%eax
  4016ce:	89 44 24 10          	mov    %eax,0x10(%rsp)
  4016d2:	8b 44 24 04          	mov    0x4(%rsp),%eax
  4016d6:	69 c0 b3 29 00 00    	imul   $0x29b3,%eax,%eax
  4016dc:	89 44 24 04          	mov    %eax,0x4(%rsp)
  4016e0:	8b 44 24 20          	mov    0x20(%rsp),%eax
  4016e4:	69 c0 d9 6b 00 00    	imul   $0x6bd9,%eax,%eax
  4016ea:	89 44 24 20          	mov    %eax,0x20(%rsp)
  4016ee:	8b 44 24 24          	mov    0x24(%rsp),%eax
  4016f2:	69 c0 09 da 00 00    	imul   $0xda09,%eax,%eax
  4016f8:	89 44 24 24          	mov    %eax,0x24(%rsp)
  4016fc:	8b 44 24 0c          	mov    0xc(%rsp),%eax
  401700:	69 c0 5e b1 00 00    	imul   $0xb15e,%eax,%eax
  401706:	89 44 24 0c          	mov    %eax,0xc(%rsp)
  40170a:	8b 44 24 20          	mov    0x20(%rsp),%eax
  40170e:	69 c0 49 9b 00 00    	imul   $0x9b49,%eax,%eax
  401714:	89 44 24 20          	mov    %eax,0x20(%rsp)
  401718:	8b 44 24 18          	mov    0x18(%rsp),%eax
  40171c:	69 c0 72 ed 00 00    	imul   $0xed72,%eax,%eax
  401722:	89 44 24 18          	mov    %eax,0x18(%rsp)
  401726:	8b 44 24 24          	mov    0x24(%rsp),%eax
  40172a:	69 c0 91 d3 00 00    	imul   $0xd391,%eax,%eax
  401730:	89 44 24 24          	mov    %eax,0x24(%rsp)
  401734:	8b 04 24             	mov    (%rsp),%eax
  401737:	69 c0 2b 8c 00 00    	imul   $0x8c2b,%eax,%eax
  40173d:	89 04 24             	mov    %eax,(%rsp)
  401740:	8b 44 24 04          	mov    0x4(%rsp),%eax
  401744:	69 c0 4c ef 00 00    	imul   $0xef4c,%eax,%eax
  40174a:	89 44 24 04          	mov    %eax,0x4(%rsp)
  40174e:	8b 44 24 14          	mov    0x14(%rsp),%eax
  401752:	69 c0 96 87 00 00    	imul   $0x8796,%eax,%eax
  401758:	89 44 24 14          	mov    %eax,0x14(%rsp)
  40175c:	8b 44 24 14          	mov    0x14(%rsp),%eax
  401760:	69 c0 27 07 00 00    	imul   $0x727,%eax,%eax
  401766:	89 44 24 14          	mov    %eax,0x14(%rsp)
  40176a:	8b 44 24 24          	mov    0x24(%rsp),%eax
  40176e:	69 c0 72 95 00 00    	imul   $0x9572,%eax,%eax
  401774:	89 44 24 24          	mov    %eax,0x24(%rsp)
  401778:	8b 44 24 04          	mov    0x4(%rsp),%eax
  40177c:	69 c0 02 f0 00 00    	imul   $0xf002,%eax,%eax
  401782:	89 44 24 04          	mov    %eax,0x4(%rsp)
  401786:	8b 44 24 18          	mov    0x18(%rsp),%eax
  40178a:	69 c0 2f 1c 00 00    	imul   $0x1c2f,%eax,%eax
  401790:	89 44 24 18          	mov    %eax,0x18(%rsp)
  401794:	8b 44 24 10          	mov    0x10(%rsp),%eax
  401798:	69 c0 ff bc 00 00    	imul   $0xbcff,%eax,%eax
  40179e:	89 44 24 10          	mov    %eax,0x10(%rsp)
  4017a2:	8b 44 24 20          	mov    0x20(%rsp),%eax
  4017a6:	69 c0 0e eb 00 00    	imul   $0xeb0e,%eax,%eax
  4017ac:	89 44 24 20          	mov    %eax,0x20(%rsp)
  4017b0:	8b 44 24 24          	mov    0x24(%rsp),%eax
  4017b4:	69 c0 85 e5 00 00    	imul   $0xe585,%eax,%eax
  4017ba:	89 44 24 24          	mov    %eax,0x24(%rsp)
  4017be:	8b 44 24 08          	mov    0x8(%rsp),%eax
  4017c2:	69 c0 b0 b8 00 00    	imul   $0xb8b0,%eax,%eax
  4017c8:	89 44 24 08          	mov    %eax,0x8(%rsp)
  4017cc:	8b 44 24 20          	mov    0x20(%rsp),%eax
  4017d0:	69 c0 1a 0a 00 00    	imul   $0xa1a,%eax,%eax
  4017d6:	89 44 24 20          	mov    %eax,0x20(%rsp)
  4017da:	8b 44 24 24          	mov    0x24(%rsp),%eax
  4017de:	69 c0 c8 05 00 00    	imul   $0x5c8,%eax,%eax
  4017e4:	89 44 24 24          	mov    %eax,0x24(%rsp)
  4017e8:	8b 44 24 08          	mov    0x8(%rsp),%eax
  4017ec:	69 c0 57 d5 00 00    	imul   $0xd557,%eax,%eax
  4017f2:	89 44 24 08          	mov    %eax,0x8(%rsp)
  4017f6:	8b 44 24 18          	mov    0x18(%rsp),%eax
  4017fa:	69 c0 04 8c 00 00    	imul   $0x8c04,%eax,%eax
  401800:	89 44 24 18          	mov    %eax,0x18(%rsp)
  401804:	8b 44 24 14          	mov    0x14(%rsp),%eax
  401808:	69 c0 bb 56 00 00    	imul   $0x56bb,%eax,%eax
  40180e:	89 44 24 14          	mov    %eax,0x14(%rsp)
  401812:	8b 44 24 0c          	mov    0xc(%rsp),%eax
  401816:	69 c0 08 d5 00 00    	imul   $0xd508,%eax,%eax
  40181c:	89 44 24 0c          	mov    %eax,0xc(%rsp)
  401820:	8b 44 24 20          	mov    0x20(%rsp),%eax
  401824:	69 c0 8a 64 00 00    	imul   $0x648a,%eax,%eax
  40182a:	89 44 24 20          	mov    %eax,0x20(%rsp)
  40182e:	ba 00 00 00 00       	mov    $0x0,%edx
  401833:	b8 00 00 00 00       	mov    $0x0,%eax
  401838:	eb 0a                	jmp    401844 <scramble+0x4b5>
  40183a:	89 d1                	mov    %edx,%ecx
  40183c:	8b 0c 8c             	mov    (%rsp,%rcx,4),%ecx
  40183f:	01 c8                	add    %ecx,%eax
  401841:	83 c2 01             	add    $0x1,%edx
  401844:	83 fa 09             	cmp    $0x9,%edx
  401847:	76 f1                	jbe    40183a <scramble+0x4ab>
  401849:	48 8b 74 24 28       	mov    0x28(%rsp),%rsi
  40184e:	64 48 33 34 25 28 00 	xor    %fs:0x28,%rsi
  401855:	00 00 
  401857:	74 05                	je     40185e <scramble+0x4cf>
  401859:	e8 92 f4 ff ff       	callq  400cf0 <__stack_chk_fail@plt>
  40185e:	48 83 c4 38          	add    $0x38,%rsp
  401862:	c3                   	retq   

0000000000401863 <getbuf>:
  401863:	48 83 ec 28          	sub    $0x28,%rsp
  401867:	48 89 e7             	mov    %rsp,%rdi
  40186a:	e8 9e 03 00 00       	callq  401c0d <Gets>
  40186f:	b8 01 00 00 00       	mov    $0x1,%eax
  401874:	48 83 c4 28          	add    $0x28,%rsp
  401878:	c3                   	retq   

0000000000401879 <touch1>:
  401879:	48 83 ec 08          	sub    $0x8,%rsp
  40187d:	c7 05 95 3c 20 00 01 	movl   $0x1,0x203c95(%rip)        # 60551c <vlevel>
  401884:	00 00 00 
  401887:	bf 06 33 40 00       	mov    $0x403306,%edi
  40188c:	e8 3f f4 ff ff       	callq  400cd0 <puts@plt>
  401891:	bf 01 00 00 00       	mov    $0x1,%edi
  401896:	e8 b7 05 00 00       	callq  401e52 <validate>
  40189b:	bf 00 00 00 00       	mov    $0x0,%edi
  4018a0:	e8 ab f5 ff ff       	callq  400e50 <exit@plt>

00000000004018a5 <touch2>:
  4018a5:	48 83 ec 08          	sub    $0x8,%rsp
  4018a9:	89 fa                	mov    %edi,%edx
  4018ab:	c7 05 67 3c 20 00 02 	movl   $0x2,0x203c67(%rip)        # 60551c <vlevel>
  4018b2:	00 00 00 
  4018b5:	39 3d 69 3c 20 00    	cmp    %edi,0x203c69(%rip)        # 605524 <cookie>
  4018bb:	75 20                	jne    4018dd <touch2+0x38>
  4018bd:	be 28 33 40 00       	mov    $0x403328,%esi
  4018c2:	bf 01 00 00 00       	mov    $0x1,%edi
  4018c7:	b8 00 00 00 00       	mov    $0x0,%eax
  4018cc:	e8 2f f5 ff ff       	callq  400e00 <__printf_chk@plt>
  4018d1:	bf 02 00 00 00       	mov    $0x2,%edi
  4018d6:	e8 77 05 00 00       	callq  401e52 <validate>
  4018db:	eb 1e                	jmp    4018fb <touch2+0x56>
  4018dd:	be 50 33 40 00       	mov    $0x403350,%esi
  4018e2:	bf 01 00 00 00       	mov    $0x1,%edi
  4018e7:	b8 00 00 00 00       	mov    $0x0,%eax
  4018ec:	e8 0f f5 ff ff       	callq  400e00 <__printf_chk@plt>
  4018f1:	bf 02 00 00 00       	mov    $0x2,%edi
  4018f6:	e8 19 06 00 00       	callq  401f14 <fail>
  4018fb:	bf 00 00 00 00       	mov    $0x0,%edi
  401900:	e8 4b f5 ff ff       	callq  400e50 <exit@plt>

0000000000401905 <hexmatch>:
  401905:	41 54                	push   %r12
  401907:	55                   	push   %rbp
  401908:	53                   	push   %rbx
  401909:	48 83 c4 80          	add    $0xffffffffffffff80,%rsp
  40190d:	89 fd                	mov    %edi,%ebp
  40190f:	48 89 f3             	mov    %rsi,%rbx
  401912:	64 48 8b 04 25 28 00 	mov    %fs:0x28,%rax
  401919:	00 00 
  40191b:	48 89 44 24 78       	mov    %rax,0x78(%rsp)
  401920:	31 c0                	xor    %eax,%eax
  401922:	e8 99 f4 ff ff       	callq  400dc0 <random@plt>
  401927:	48 89 c1             	mov    %rax,%rcx
  40192a:	48 ba 0b d7 a3 70 3d 	movabs $0xa3d70a3d70a3d70b,%rdx
  401931:	0a d7 a3 
  401934:	48 f7 ea             	imul   %rdx
  401937:	48 01 ca             	add    %rcx,%rdx
  40193a:	48 c1 fa 06          	sar    $0x6,%rdx
  40193e:	48 89 c8             	mov    %rcx,%rax
  401941:	48 c1 f8 3f          	sar    $0x3f,%rax
  401945:	48 29 c2             	sub    %rax,%rdx
  401948:	48 8d 04 92          	lea    (%rdx,%rdx,4),%rax
  40194c:	48 8d 14 80          	lea    (%rax,%rax,4),%rdx
  401950:	48 8d 04 95 00 00 00 	lea    0x0(,%rdx,4),%rax
  401957:	00 
  401958:	48 29 c1             	sub    %rax,%rcx
  40195b:	4c 8d 24 0c          	lea    (%rsp,%rcx,1),%r12
  40195f:	41 89 e8             	mov    %ebp,%r8d
  401962:	b9 23 33 40 00       	mov    $0x403323,%ecx
  401967:	48 c7 c2 ff ff ff ff 	mov    $0xffffffffffffffff,%rdx
  40196e:	be 01 00 00 00       	mov    $0x1,%esi
  401973:	4c 89 e7             	mov    %r12,%rdi
  401976:	b8 00 00 00 00       	mov    $0x0,%eax
  40197b:	e8 00 f5 ff ff       	callq  400e80 <__sprintf_chk@plt>
  401980:	ba 09 00 00 00       	mov    $0x9,%edx
  401985:	4c 89 e6             	mov    %r12,%rsi
  401988:	48 89 df             	mov    %rbx,%rdi
  40198b:	e8 20 f3 ff ff       	callq  400cb0 <strncmp@plt>
  401990:	85 c0                	test   %eax,%eax
  401992:	0f 94 c0             	sete   %al
  401995:	48 8b 5c 24 78       	mov    0x78(%rsp),%rbx
  40199a:	64 48 33 1c 25 28 00 	xor    %fs:0x28,%rbx
  4019a1:	00 00 
  4019a3:	74 05                	je     4019aa <hexmatch+0xa5>
  4019a5:	e8 46 f3 ff ff       	callq  400cf0 <__stack_chk_fail@plt>
  4019aa:	0f b6 c0             	movzbl %al,%eax
  4019ad:	48 83 ec 80          	sub    $0xffffffffffffff80,%rsp
  4019b1:	5b                   	pop    %rbx
  4019b2:	5d                   	pop    %rbp
  4019b3:	41 5c                	pop    %r12
  4019b5:	c3                   	retq   

00000000004019b6 <touch3>:
  4019b6:	53                   	push   %rbx
  4019b7:	48 89 fb             	mov    %rdi,%rbx
  4019ba:	c7 05 58 3b 20 00 03 	movl   $0x3,0x203b58(%rip)        # 60551c <vlevel>
  4019c1:	00 00 00 
  4019c4:	48 89 fe             	mov    %rdi,%rsi
  4019c7:	8b 3d 57 3b 20 00    	mov    0x203b57(%rip),%edi        # 605524 <cookie>
  4019cd:	e8 33 ff ff ff       	callq  401905 <hexmatch>
  4019d2:	85 c0                	test   %eax,%eax
  4019d4:	74 23                	je     4019f9 <touch3+0x43>
  4019d6:	48 89 da             	mov    %rbx,%rdx
  4019d9:	be 78 33 40 00       	mov    $0x403378,%esi
  4019de:	bf 01 00 00 00       	mov    $0x1,%edi
  4019e3:	b8 00 00 00 00       	mov    $0x0,%eax
  4019e8:	e8 13 f4 ff ff       	callq  400e00 <__printf_chk@plt>
  4019ed:	bf 03 00 00 00       	mov    $0x3,%edi
  4019f2:	e8 5b 04 00 00       	callq  401e52 <validate>
  4019f7:	eb 21                	jmp    401a1a <touch3+0x64>
  4019f9:	48 89 da             	mov    %rbx,%rdx
  4019fc:	be a0 33 40 00       	mov    $0x4033a0,%esi
  401a01:	bf 01 00 00 00       	mov    $0x1,%edi
  401a06:	b8 00 00 00 00       	mov    $0x0,%eax
  401a0b:	e8 f0 f3 ff ff       	callq  400e00 <__printf_chk@plt>
  401a10:	bf 03 00 00 00       	mov    $0x3,%edi
  401a15:	e8 fa 04 00 00       	callq  401f14 <fail>
  401a1a:	bf 00 00 00 00       	mov    $0x0,%edi
  401a1f:	e8 2c f4 ff ff       	callq  400e50 <exit@plt>

0000000000401a24 <test>:
  401a24:	48 83 ec 08          	sub    $0x8,%rsp
  401a28:	b8 00 00 00 00       	mov    $0x0,%eax
  401a2d:	e8 31 fe ff ff       	callq  401863 <getbuf>
  401a32:	89 c2                	mov    %eax,%edx
  401a34:	be c8 33 40 00       	mov    $0x4033c8,%esi
  401a39:	bf 01 00 00 00       	mov    $0x1,%edi
  401a3e:	b8 00 00 00 00       	mov    $0x0,%eax
  401a43:	e8 b8 f3 ff ff       	callq  400e00 <__printf_chk@plt>
  401a48:	48 83 c4 08          	add    $0x8,%rsp
  401a4c:	c3                   	retq   

0000000000401a4d <start_farm>:
  401a4d:	b8 01 00 00 00       	mov    $0x1,%eax
  401a52:	c3                   	retq   

0000000000401a53 <getval_478>:
  401a53:	b8 58 91 c3 46       	mov    $0x46c39158,%eax
  401a58:	c3                   	retq   

0000000000401a59 <addval_333>:
  401a59:	8d 87 fa 3f d6 78    	lea    0x78d63ffa(%rdi),%eax
  401a5f:	c3                   	retq   

0000000000401a60 <getval_131>:
  401a60:	b8 48 89 c7 c3       	mov    $0xc3c78948,%eax
  401a65:	c3                   	retq   

0000000000401a66 <setval_327>:
  401a66:	c7 07 48 89 c7 90    	movl   $0x90c78948,(%rdi)
  401a6c:	c3                   	retq   

0000000000401a6d <getval_144>:
  401a6d:	b8 fe 58 90 90       	mov    $0x909058fe,%eax
  401a72:	c3                   	retq   

0000000000401a73 <getval_230>:
  401a73:	b8 40 89 c7 c3       	mov    $0xc3c78940,%eax
  401a78:	c3                   	retq   

0000000000401a79 <addval_112>:
  401a79:	8d 87 48 89 c7 c2    	lea    -0x3d3876b8(%rdi),%eax
  401a7f:	c3                   	retq   

0000000000401a80 <getval_429>:
  401a80:	b8 58 90 c3 b9       	mov    $0xb9c39058,%eax
  401a85:	c3                   	retq   

0000000000401a86 <mid_farm>:
  401a86:	b8 01 00 00 00       	mov    $0x1,%eax
  401a8b:	c3                   	retq   

0000000000401a8c <add_xy>:
  401a8c:	48 8d 04 37          	lea    (%rdi,%rsi,1),%rax
  401a90:	c3                   	retq   

0000000000401a91 <getval_296>:
  401a91:	b8 89 c2 c7 45       	mov    $0x45c7c289,%eax
  401a96:	c3                   	retq   

0000000000401a97 <setval_329>:
  401a97:	c7 07 48 89 e0 90    	movl   $0x90e08948,(%rdi)
  401a9d:	c3                   	retq   

0000000000401a9e <getval_199>:
  401a9e:	b8 89 ce a4 c0       	mov    $0xc0a4ce89,%eax
  401aa3:	c3                   	retq   

0000000000401aa4 <addval_177>:
  401aa4:	8d 87 89 c2 78 d2    	lea    -0x2d873d77(%rdi),%eax
  401aaa:	c3                   	retq   

0000000000401aab <getval_379>:
  401aab:	b8 48 88 e0 c3       	mov    $0xc3e08848,%eax
  401ab0:	c3                   	retq   

0000000000401ab1 <setval_453>:
  401ab1:	c7 07 15 89 d1 94    	movl   $0x94d18915,(%rdi)
  401ab7:	c3                   	retq   

0000000000401ab8 <getval_213>:
  401ab8:	b8 89 ce 20 d2       	mov    $0xd220ce89,%eax
  401abd:	c3                   	retq   

0000000000401abe <getval_175>:
  401abe:	b8 8d ce 84 db       	mov    $0xdb84ce8d,%eax
  401ac3:	c3                   	retq   

0000000000401ac4 <setval_212>:
  401ac4:	c7 07 89 d1 00 c0    	movl   $0xc000d189,(%rdi)
  401aca:	c3                   	retq   

0000000000401acb <getval_393>:
  401acb:	b8 89 d1 94 d2       	mov    $0xd294d189,%eax
  401ad0:	c3                   	retq   

0000000000401ad1 <getval_148>:
  401ad1:	b8 89 c2 28 c0       	mov    $0xc028c289,%eax
  401ad6:	c3                   	retq   

0000000000401ad7 <setval_232>:
  401ad7:	c7 07 48 a9 e0 c3    	movl   $0xc3e0a948,(%rdi)
  401add:	c3                   	retq   

0000000000401ade <addval_497>:
  401ade:	8d 87 47 48 89 e0    	lea    -0x1f76b7b9(%rdi),%eax
  401ae4:	c3                   	retq   

0000000000401ae5 <addval_143>:
  401ae5:	8d 87 89 ce 90 c7    	lea    -0x386f3177(%rdi),%eax
  401aeb:	c3                   	retq   

0000000000401aec <addval_305>:
  401aec:	8d 87 89 d1 28 db    	lea    -0x24d72e77(%rdi),%eax
  401af2:	c3                   	retq   

0000000000401af3 <setval_336>:
  401af3:	c7 07 89 ce c4 c9    	movl   $0xc9c4ce89,(%rdi)
  401af9:	c3                   	retq   

0000000000401afa <addval_202>:
  401afa:	8d 87 89 c2 84 c0    	lea    -0x3f7b3d77(%rdi),%eax
  401b00:	c3                   	retq   

0000000000401b01 <getval_456>:
  401b01:	b8 48 89 e0 c7       	mov    $0xc7e08948,%eax
  401b06:	c3                   	retq   

0000000000401b07 <setval_413>:
  401b07:	c7 07 89 ce 38 c0    	movl   $0xc038ce89,(%rdi)
  401b0d:	c3                   	retq   

0000000000401b0e <setval_275>:
  401b0e:	c7 07 89 d1 38 db    	movl   $0xdb38d189,(%rdi)
  401b14:	c3                   	retq   

0000000000401b15 <setval_154>:
  401b15:	c7 07 89 c2 c4 c0    	movl   $0xc0c4c289,(%rdi)
  401b1b:	c3                   	retq   

0000000000401b1c <addval_284>:
  401b1c:	8d 87 89 ce 60 c9    	lea    -0x369f3177(%rdi),%eax
  401b22:	c3                   	retq   

0000000000401b23 <addval_472>:
  401b23:	8d 87 89 c2 92 90    	lea    -0x6f6d3d77(%rdi),%eax
  401b29:	c3                   	retq   

0000000000401b2a <getval_494>:
  401b2a:	b8 89 ce 78 c9       	mov    $0xc978ce89,%eax
  401b2f:	c3                   	retq   

0000000000401b30 <setval_335>:
  401b30:	c7 07 48 89 e0 94    	movl   $0x94e08948,(%rdi)
  401b36:	c3                   	retq   

0000000000401b37 <setval_389>:
  401b37:	c7 07 89 c2 60 db    	movl   $0xdb60c289,(%rdi)
  401b3d:	c3                   	retq   

0000000000401b3e <setval_399>:
  401b3e:	c7 07 68 89 e0 90    	movl   $0x90e08968,(%rdi)
  401b44:	c3                   	retq   

0000000000401b45 <setval_243>:
  401b45:	c7 07 71 89 c2 90    	movl   $0x90c28971,(%rdi)
  401b4b:	c3                   	retq   

0000000000401b4c <addval_208>:
  401b4c:	8d 87 01 89 d1 c1    	lea    -0x3e2e76ff(%rdi),%eax
  401b52:	c3                   	retq   

0000000000401b53 <addval_499>:
  401b53:	8d 87 89 d1 48 db    	lea    -0x24b72e77(%rdi),%eax
  401b59:	c3                   	retq   

0000000000401b5a <setval_130>:
  401b5a:	c7 07 89 d1 20 c9    	movl   $0xc920d189,(%rdi)
  401b60:	c3                   	retq   

0000000000401b61 <getval_318>:
  401b61:	b8 48 89 e0 c7       	mov    $0xc7e08948,%eax
  401b66:	c3                   	retq   

0000000000401b67 <end_farm>:
  401b67:	b8 01 00 00 00       	mov    $0x1,%eax
  401b6c:	c3                   	retq   

0000000000401b6d <save_char>:
  401b6d:	8b 05 d1 45 20 00    	mov    0x2045d1(%rip),%eax        # 606144 <gets_cnt>
  401b73:	3d ff 03 00 00       	cmp    $0x3ff,%eax
  401b78:	7f 49                	jg     401bc3 <save_char+0x56>
  401b7a:	8d 14 40             	lea    (%rax,%rax,2),%edx
  401b7d:	89 f9                	mov    %edi,%ecx
  401b7f:	c0 e9 04             	shr    $0x4,%cl
  401b82:	83 e1 0f             	and    $0xf,%ecx
  401b85:	0f b6 b1 f0 36 40 00 	movzbl 0x4036f0(%rcx),%esi
  401b8c:	48 63 ca             	movslq %edx,%rcx
  401b8f:	40 88 b1 40 55 60 00 	mov    %sil,0x605540(%rcx)
  401b96:	8d 4a 01             	lea    0x1(%rdx),%ecx
  401b99:	83 e7 0f             	and    $0xf,%edi
  401b9c:	0f b6 b7 f0 36 40 00 	movzbl 0x4036f0(%rdi),%esi
  401ba3:	48 63 c9             	movslq %ecx,%rcx
  401ba6:	40 88 b1 40 55 60 00 	mov    %sil,0x605540(%rcx)
  401bad:	83 c2 02             	add    $0x2,%edx
  401bb0:	48 63 d2             	movslq %edx,%rdx
  401bb3:	c6 82 40 55 60 00 20 	movb   $0x20,0x605540(%rdx)
  401bba:	83 c0 01             	add    $0x1,%eax
  401bbd:	89 05 81 45 20 00    	mov    %eax,0x204581(%rip)        # 606144 <gets_cnt>
  401bc3:	f3 c3                	repz retq 

0000000000401bc5 <save_term>:
  401bc5:	8b 05 79 45 20 00    	mov    0x204579(%rip),%eax        # 606144 <gets_cnt>
  401bcb:	8d 04 40             	lea    (%rax,%rax,2),%eax
  401bce:	48 98                	cltq   
  401bd0:	c6 80 40 55 60 00 00 	movb   $0x0,0x605540(%rax)
  401bd7:	c3                   	retq   

0000000000401bd8 <check_fail>:
  401bd8:	48 83 ec 08          	sub    $0x8,%rsp
  401bdc:	0f be 15 65 45 20 00 	movsbl 0x204565(%rip),%edx        # 606148 <target_prefix>
  401be3:	41 b8 40 55 60 00    	mov    $0x605540,%r8d
  401be9:	8b 0d 29 39 20 00    	mov    0x203929(%rip),%ecx        # 605518 <check_level>
  401bef:	be eb 33 40 00       	mov    $0x4033eb,%esi
  401bf4:	bf 01 00 00 00       	mov    $0x1,%edi
  401bf9:	b8 00 00 00 00       	mov    $0x0,%eax
  401bfe:	e8 fd f1 ff ff       	callq  400e00 <__printf_chk@plt>
  401c03:	bf 01 00 00 00       	mov    $0x1,%edi
  401c08:	e8 43 f2 ff ff       	callq  400e50 <exit@plt>

0000000000401c0d <Gets>:
  401c0d:	41 54                	push   %r12
  401c0f:	55                   	push   %rbp
  401c10:	53                   	push   %rbx
  401c11:	49 89 fc             	mov    %rdi,%r12
  401c14:	c7 05 26 45 20 00 00 	movl   $0x0,0x204526(%rip)        # 606144 <gets_cnt>
  401c1b:	00 00 00 
  401c1e:	48 89 fb             	mov    %rdi,%rbx
  401c21:	eb 11                	jmp    401c34 <Gets+0x27>
  401c23:	48 8d 6b 01          	lea    0x1(%rbx),%rbp
  401c27:	88 03                	mov    %al,(%rbx)
  401c29:	0f b6 f8             	movzbl %al,%edi
  401c2c:	e8 3c ff ff ff       	callq  401b6d <save_char>
  401c31:	48 89 eb             	mov    %rbp,%rbx
  401c34:	48 8b 3d d5 38 20 00 	mov    0x2038d5(%rip),%rdi        # 605510 <infile>
  401c3b:	e8 90 f1 ff ff       	callq  400dd0 <_IO_getc@plt>
  401c40:	83 f8 ff             	cmp    $0xffffffff,%eax
  401c43:	74 05                	je     401c4a <Gets+0x3d>
  401c45:	83 f8 0a             	cmp    $0xa,%eax
  401c48:	75 d9                	jne    401c23 <Gets+0x16>
  401c4a:	c6 03 00             	movb   $0x0,(%rbx)
  401c4d:	b8 00 00 00 00       	mov    $0x0,%eax
  401c52:	e8 6e ff ff ff       	callq  401bc5 <save_term>
  401c57:	4c 89 e0             	mov    %r12,%rax
  401c5a:	5b                   	pop    %rbx
  401c5b:	5d                   	pop    %rbp
  401c5c:	41 5c                	pop    %r12
  401c5e:	c3                   	retq   

0000000000401c5f <notify_server>:
  401c5f:	53                   	push   %rbx
  401c60:	48 81 ec 10 40 00 00 	sub    $0x4010,%rsp
  401c67:	64 48 8b 04 25 28 00 	mov    %fs:0x28,%rax
  401c6e:	00 00 
  401c70:	48 89 84 24 08 40 00 	mov    %rax,0x4008(%rsp)
  401c77:	00 
  401c78:	31 c0                	xor    %eax,%eax
  401c7a:	83 3d a7 38 20 00 00 	cmpl   $0x0,0x2038a7(%rip)        # 605528 <is_checker>
  401c81:	0f 85 aa 01 00 00    	jne    401e31 <notify_server+0x1d2>
  401c87:	89 fb                	mov    %edi,%ebx
  401c89:	8b 05 b5 44 20 00    	mov    0x2044b5(%rip),%eax        # 606144 <gets_cnt>
  401c8f:	83 c0 64             	add    $0x64,%eax
  401c92:	3d 00 20 00 00       	cmp    $0x2000,%eax
  401c97:	7e 1e                	jle    401cb7 <notify_server+0x58>
  401c99:	be 20 35 40 00       	mov    $0x403520,%esi
  401c9e:	bf 01 00 00 00       	mov    $0x1,%edi
  401ca3:	b8 00 00 00 00       	mov    $0x0,%eax
  401ca8:	e8 53 f1 ff ff       	callq  400e00 <__printf_chk@plt>
  401cad:	bf 01 00 00 00       	mov    $0x1,%edi
  401cb2:	e8 99 f1 ff ff       	callq  400e50 <exit@plt>
  401cb7:	0f be 05 8a 44 20 00 	movsbl 0x20448a(%rip),%eax        # 606148 <target_prefix>
  401cbe:	83 3d e3 37 20 00 00 	cmpl   $0x0,0x2037e3(%rip)        # 6054a8 <notify>
  401cc5:	74 08                	je     401ccf <notify_server+0x70>
  401cc7:	8b 15 53 38 20 00    	mov    0x203853(%rip),%edx        # 605520 <authkey>
  401ccd:	eb 05                	jmp    401cd4 <notify_server+0x75>
  401ccf:	ba ff ff ff ff       	mov    $0xffffffff,%edx
  401cd4:	85 db                	test   %ebx,%ebx
  401cd6:	74 08                	je     401ce0 <notify_server+0x81>
  401cd8:	41 b9 01 34 40 00    	mov    $0x403401,%r9d
  401cde:	eb 06                	jmp    401ce6 <notify_server+0x87>
  401ce0:	41 b9 06 34 40 00    	mov    $0x403406,%r9d
  401ce6:	68 40 55 60 00       	pushq  $0x605540
  401ceb:	56                   	push   %rsi
  401cec:	50                   	push   %rax
  401ced:	52                   	push   %rdx
  401cee:	44 8b 05 73 34 20 00 	mov    0x203473(%rip),%r8d        # 605168 <target_id>
  401cf5:	b9 0b 34 40 00       	mov    $0x40340b,%ecx
  401cfa:	ba 00 20 00 00       	mov    $0x2000,%edx
  401cff:	be 01 00 00 00       	mov    $0x1,%esi
  401d04:	48 8d 7c 24 20       	lea    0x20(%rsp),%rdi
  401d09:	b8 00 00 00 00       	mov    $0x0,%eax
  401d0e:	e8 6d f1 ff ff       	callq  400e80 <__sprintf_chk@plt>
  401d13:	48 83 c4 20          	add    $0x20,%rsp
  401d17:	83 3d 8a 37 20 00 00 	cmpl   $0x0,0x20378a(%rip)        # 6054a8 <notify>
  401d1e:	0f 84 81 00 00 00    	je     401da5 <notify_server+0x146>
  401d24:	85 db                	test   %ebx,%ebx
  401d26:	74 6e                	je     401d96 <notify_server+0x137>
  401d28:	4c 8d 8c 24 00 20 00 	lea    0x2000(%rsp),%r9
  401d2f:	00 
  401d30:	41 b8 00 00 00 00    	mov    $0x0,%r8d
  401d36:	48 89 e1             	mov    %rsp,%rcx
  401d39:	48 8b 15 30 34 20 00 	mov    0x203430(%rip),%rdx        # 605170 <lab>
  401d40:	48 8b 35 31 34 20 00 	mov    0x203431(%rip),%rsi        # 605178 <course>
  401d47:	48 8b 3d 12 34 20 00 	mov    0x203412(%rip),%rdi        # 605160 <user_id>
  401d4e:	e8 ef 10 00 00       	callq  402e42 <driver_post>
  401d53:	85 c0                	test   %eax,%eax
  401d55:	79 26                	jns    401d7d <notify_server+0x11e>
  401d57:	48 8d 94 24 00 20 00 	lea    0x2000(%rsp),%rdx
  401d5e:	00 
  401d5f:	be 27 34 40 00       	mov    $0x403427,%esi
  401d64:	bf 01 00 00 00       	mov    $0x1,%edi
  401d69:	b8 00 00 00 00       	mov    $0x0,%eax
  401d6e:	e8 8d f0 ff ff       	callq  400e00 <__printf_chk@plt>
  401d73:	bf 01 00 00 00       	mov    $0x1,%edi
  401d78:	e8 d3 f0 ff ff       	callq  400e50 <exit@plt>
  401d7d:	bf 50 35 40 00       	mov    $0x403550,%edi
  401d82:	e8 49 ef ff ff       	callq  400cd0 <puts@plt>
  401d87:	bf 33 34 40 00       	mov    $0x403433,%edi
  401d8c:	e8 3f ef ff ff       	callq  400cd0 <puts@plt>
  401d91:	e9 9b 00 00 00       	jmpq   401e31 <notify_server+0x1d2>
  401d96:	bf 3d 34 40 00       	mov    $0x40343d,%edi
  401d9b:	e8 30 ef ff ff       	callq  400cd0 <puts@plt>
  401da0:	e9 8c 00 00 00       	jmpq   401e31 <notify_server+0x1d2>
  401da5:	85 db                	test   %ebx,%ebx
  401da7:	74 07                	je     401db0 <notify_server+0x151>
  401da9:	ba 01 34 40 00       	mov    $0x403401,%edx
  401dae:	eb 05                	jmp    401db5 <notify_server+0x156>
  401db0:	ba 06 34 40 00       	mov    $0x403406,%edx
  401db5:	be 88 35 40 00       	mov    $0x403588,%esi
  401dba:	bf 01 00 00 00       	mov    $0x1,%edi
  401dbf:	b8 00 00 00 00       	mov    $0x0,%eax
  401dc4:	e8 37 f0 ff ff       	callq  400e00 <__printf_chk@plt>
  401dc9:	48 8b 15 90 33 20 00 	mov    0x203390(%rip),%rdx        # 605160 <user_id>
  401dd0:	be 44 34 40 00       	mov    $0x403444,%esi
  401dd5:	bf 01 00 00 00       	mov    $0x1,%edi
  401dda:	b8 00 00 00 00       	mov    $0x0,%eax
  401ddf:	e8 1c f0 ff ff       	callq  400e00 <__printf_chk@plt>
  401de4:	48 8b 15 8d 33 20 00 	mov    0x20338d(%rip),%rdx        # 605178 <course>
  401deb:	be 51 34 40 00       	mov    $0x403451,%esi
  401df0:	bf 01 00 00 00       	mov    $0x1,%edi
  401df5:	b8 00 00 00 00       	mov    $0x0,%eax
  401dfa:	e8 01 f0 ff ff       	callq  400e00 <__printf_chk@plt>
  401dff:	48 8b 15 6a 33 20 00 	mov    0x20336a(%rip),%rdx        # 605170 <lab>
  401e06:	be 5d 34 40 00       	mov    $0x40345d,%esi
  401e0b:	bf 01 00 00 00       	mov    $0x1,%edi
  401e10:	b8 00 00 00 00       	mov    $0x0,%eax
  401e15:	e8 e6 ef ff ff       	callq  400e00 <__printf_chk@plt>
  401e1a:	48 89 e2             	mov    %rsp,%rdx
  401e1d:	be 66 34 40 00       	mov    $0x403466,%esi
  401e22:	bf 01 00 00 00       	mov    $0x1,%edi
  401e27:	b8 00 00 00 00       	mov    $0x0,%eax
  401e2c:	e8 cf ef ff ff       	callq  400e00 <__printf_chk@plt>
  401e31:	48 8b 84 24 08 40 00 	mov    0x4008(%rsp),%rax
  401e38:	00 
  401e39:	64 48 33 04 25 28 00 	xor    %fs:0x28,%rax
  401e40:	00 00 
  401e42:	74 05                	je     401e49 <notify_server+0x1ea>
  401e44:	e8 a7 ee ff ff       	callq  400cf0 <__stack_chk_fail@plt>
  401e49:	48 81 c4 10 40 00 00 	add    $0x4010,%rsp
  401e50:	5b                   	pop    %rbx
  401e51:	c3                   	retq   

0000000000401e52 <validate>:
  401e52:	53                   	push   %rbx
  401e53:	89 fb                	mov    %edi,%ebx
  401e55:	83 3d cc 36 20 00 00 	cmpl   $0x0,0x2036cc(%rip)        # 605528 <is_checker>
  401e5c:	74 6b                	je     401ec9 <validate+0x77>
  401e5e:	39 3d b8 36 20 00    	cmp    %edi,0x2036b8(%rip)        # 60551c <vlevel>
  401e64:	74 14                	je     401e7a <validate+0x28>
  401e66:	bf 72 34 40 00       	mov    $0x403472,%edi
  401e6b:	e8 60 ee ff ff       	callq  400cd0 <puts@plt>
  401e70:	b8 00 00 00 00       	mov    $0x0,%eax
  401e75:	e8 5e fd ff ff       	callq  401bd8 <check_fail>
  401e7a:	8b 15 98 36 20 00    	mov    0x203698(%rip),%edx        # 605518 <check_level>
  401e80:	39 d7                	cmp    %edx,%edi
  401e82:	74 20                	je     401ea4 <validate+0x52>
  401e84:	89 f9                	mov    %edi,%ecx
  401e86:	be b0 35 40 00       	mov    $0x4035b0,%esi
  401e8b:	bf 01 00 00 00       	mov    $0x1,%edi
  401e90:	b8 00 00 00 00       	mov    $0x0,%eax
  401e95:	e8 66 ef ff ff       	callq  400e00 <__printf_chk@plt>
  401e9a:	b8 00 00 00 00       	mov    $0x0,%eax
  401e9f:	e8 34 fd ff ff       	callq  401bd8 <check_fail>
  401ea4:	0f be 15 9d 42 20 00 	movsbl 0x20429d(%rip),%edx        # 606148 <target_prefix>
  401eab:	41 b8 40 55 60 00    	mov    $0x605540,%r8d
  401eb1:	89 f9                	mov    %edi,%ecx
  401eb3:	be 90 34 40 00       	mov    $0x403490,%esi
  401eb8:	bf 01 00 00 00       	mov    $0x1,%edi
  401ebd:	b8 00 00 00 00       	mov    $0x0,%eax
  401ec2:	e8 39 ef ff ff       	callq  400e00 <__printf_chk@plt>
  401ec7:	eb 49                	jmp    401f12 <validate+0xc0>
  401ec9:	3b 3d 4d 36 20 00    	cmp    0x20364d(%rip),%edi        # 60551c <vlevel>
  401ecf:	74 18                	je     401ee9 <validate+0x97>
  401ed1:	bf 72 34 40 00       	mov    $0x403472,%edi
  401ed6:	e8 f5 ed ff ff       	callq  400cd0 <puts@plt>
  401edb:	89 de                	mov    %ebx,%esi
  401edd:	bf 00 00 00 00       	mov    $0x0,%edi
  401ee2:	e8 78 fd ff ff       	callq  401c5f <notify_server>
  401ee7:	eb 29                	jmp    401f12 <validate+0xc0>
  401ee9:	0f be 0d 58 42 20 00 	movsbl 0x204258(%rip),%ecx        # 606148 <target_prefix>
  401ef0:	89 fa                	mov    %edi,%edx
  401ef2:	be d8 35 40 00       	mov    $0x4035d8,%esi
  401ef7:	bf 01 00 00 00       	mov    $0x1,%edi
  401efc:	b8 00 00 00 00       	mov    $0x0,%eax
  401f01:	e8 fa ee ff ff       	callq  400e00 <__printf_chk@plt>
  401f06:	89 de                	mov    %ebx,%esi
  401f08:	bf 01 00 00 00       	mov    $0x1,%edi
  401f0d:	e8 4d fd ff ff       	callq  401c5f <notify_server>
  401f12:	5b                   	pop    %rbx
  401f13:	c3                   	retq   

0000000000401f14 <fail>:
  401f14:	48 83 ec 08          	sub    $0x8,%rsp
  401f18:	83 3d 09 36 20 00 00 	cmpl   $0x0,0x203609(%rip)        # 605528 <is_checker>
  401f1f:	74 0a                	je     401f2b <fail+0x17>
  401f21:	b8 00 00 00 00       	mov    $0x0,%eax
  401f26:	e8 ad fc ff ff       	callq  401bd8 <check_fail>
  401f2b:	89 fe                	mov    %edi,%esi
  401f2d:	bf 00 00 00 00       	mov    $0x0,%edi
  401f32:	e8 28 fd ff ff       	callq  401c5f <notify_server>
  401f37:	48 83 c4 08          	add    $0x8,%rsp
  401f3b:	c3                   	retq   

0000000000401f3c <bushandler>:
  401f3c:	48 83 ec 08          	sub    $0x8,%rsp
  401f40:	83 3d e1 35 20 00 00 	cmpl   $0x0,0x2035e1(%rip)        # 605528 <is_checker>
  401f47:	74 14                	je     401f5d <bushandler+0x21>
  401f49:	bf a5 34 40 00       	mov    $0x4034a5,%edi
  401f4e:	e8 7d ed ff ff       	callq  400cd0 <puts@plt>
  401f53:	b8 00 00 00 00       	mov    $0x0,%eax
  401f58:	e8 7b fc ff ff       	callq  401bd8 <check_fail>
  401f5d:	bf 10 36 40 00       	mov    $0x403610,%edi
  401f62:	e8 69 ed ff ff       	callq  400cd0 <puts@plt>
  401f67:	bf af 34 40 00       	mov    $0x4034af,%edi
  401f6c:	e8 5f ed ff ff       	callq  400cd0 <puts@plt>
  401f71:	be 00 00 00 00       	mov    $0x0,%esi
  401f76:	bf 00 00 00 00       	mov    $0x0,%edi
  401f7b:	e8 df fc ff ff       	callq  401c5f <notify_server>
  401f80:	bf 01 00 00 00       	mov    $0x1,%edi
  401f85:	e8 c6 ee ff ff       	callq  400e50 <exit@plt>

0000000000401f8a <seghandler>:
  401f8a:	48 83 ec 08          	sub    $0x8,%rsp
  401f8e:	83 3d 93 35 20 00 00 	cmpl   $0x0,0x203593(%rip)        # 605528 <is_checker>
  401f95:	74 14                	je     401fab <seghandler+0x21>
  401f97:	bf c5 34 40 00       	mov    $0x4034c5,%edi
  401f9c:	e8 2f ed ff ff       	callq  400cd0 <puts@plt>
  401fa1:	b8 00 00 00 00       	mov    $0x0,%eax
  401fa6:	e8 2d fc ff ff       	callq  401bd8 <check_fail>
  401fab:	bf 30 36 40 00       	mov    $0x403630,%edi
  401fb0:	e8 1b ed ff ff       	callq  400cd0 <puts@plt>
  401fb5:	bf af 34 40 00       	mov    $0x4034af,%edi
  401fba:	e8 11 ed ff ff       	callq  400cd0 <puts@plt>
  401fbf:	be 00 00 00 00       	mov    $0x0,%esi
  401fc4:	bf 00 00 00 00       	mov    $0x0,%edi
  401fc9:	e8 91 fc ff ff       	callq  401c5f <notify_server>
  401fce:	bf 01 00 00 00       	mov    $0x1,%edi
  401fd3:	e8 78 ee ff ff       	callq  400e50 <exit@plt>

0000000000401fd8 <illegalhandler>:
  401fd8:	48 83 ec 08          	sub    $0x8,%rsp
  401fdc:	83 3d 45 35 20 00 00 	cmpl   $0x0,0x203545(%rip)        # 605528 <is_checker>
  401fe3:	74 14                	je     401ff9 <illegalhandler+0x21>
  401fe5:	bf d8 34 40 00       	mov    $0x4034d8,%edi
  401fea:	e8 e1 ec ff ff       	callq  400cd0 <puts@plt>
  401fef:	b8 00 00 00 00       	mov    $0x0,%eax
  401ff4:	e8 df fb ff ff       	callq  401bd8 <check_fail>
  401ff9:	bf 58 36 40 00       	mov    $0x403658,%edi
  401ffe:	e8 cd ec ff ff       	callq  400cd0 <puts@plt>
  402003:	bf af 34 40 00       	mov    $0x4034af,%edi
  402008:	e8 c3 ec ff ff       	callq  400cd0 <puts@plt>
  40200d:	be 00 00 00 00       	mov    $0x0,%esi
  402012:	bf 00 00 00 00       	mov    $0x0,%edi
  402017:	e8 43 fc ff ff       	callq  401c5f <notify_server>
  40201c:	bf 01 00 00 00       	mov    $0x1,%edi
  402021:	e8 2a ee ff ff       	callq  400e50 <exit@plt>

0000000000402026 <sigalrmhandler>:
  402026:	48 83 ec 08          	sub    $0x8,%rsp
  40202a:	83 3d f7 34 20 00 00 	cmpl   $0x0,0x2034f7(%rip)        # 605528 <is_checker>
  402031:	74 14                	je     402047 <sigalrmhandler+0x21>
  402033:	bf ec 34 40 00       	mov    $0x4034ec,%edi
  402038:	e8 93 ec ff ff       	callq  400cd0 <puts@plt>
  40203d:	b8 00 00 00 00       	mov    $0x0,%eax
  402042:	e8 91 fb ff ff       	callq  401bd8 <check_fail>
  402047:	ba 05 00 00 00       	mov    $0x5,%edx
  40204c:	be 88 36 40 00       	mov    $0x403688,%esi
  402051:	bf 01 00 00 00       	mov    $0x1,%edi
  402056:	b8 00 00 00 00       	mov    $0x0,%eax
  40205b:	e8 a0 ed ff ff       	callq  400e00 <__printf_chk@plt>
  402060:	be 00 00 00 00       	mov    $0x0,%esi
  402065:	bf 00 00 00 00       	mov    $0x0,%edi
  40206a:	e8 f0 fb ff ff       	callq  401c5f <notify_server>
  40206f:	bf 01 00 00 00       	mov    $0x1,%edi
  402074:	e8 d7 ed ff ff       	callq  400e50 <exit@plt>

0000000000402079 <launch>:
  402079:	55                   	push   %rbp
  40207a:	48 89 e5             	mov    %rsp,%rbp
  40207d:	48 83 ec 10          	sub    $0x10,%rsp
  402081:	48 89 fa             	mov    %rdi,%rdx
  402084:	64 48 8b 04 25 28 00 	mov    %fs:0x28,%rax
  40208b:	00 00 
  40208d:	48 89 45 f8          	mov    %rax,-0x8(%rbp)
  402091:	31 c0                	xor    %eax,%eax
  402093:	48 8d 47 1e          	lea    0x1e(%rdi),%rax
  402097:	48 83 e0 f0          	and    $0xfffffffffffffff0,%rax
  40209b:	48 29 c4             	sub    %rax,%rsp
  40209e:	48 8d 7c 24 0f       	lea    0xf(%rsp),%rdi
  4020a3:	48 83 e7 f0          	and    $0xfffffffffffffff0,%rdi
  4020a7:	be f4 00 00 00       	mov    $0xf4,%esi
  4020ac:	e8 5f ec ff ff       	callq  400d10 <memset@plt>
  4020b1:	48 8b 05 08 34 20 00 	mov    0x203408(%rip),%rax        # 6054c0 <stdin@@GLIBC_2.2.5>
  4020b8:	48 39 05 51 34 20 00 	cmp    %rax,0x203451(%rip)        # 605510 <infile>
  4020bf:	75 14                	jne    4020d5 <launch+0x5c>
  4020c1:	be f4 34 40 00       	mov    $0x4034f4,%esi
  4020c6:	bf 01 00 00 00       	mov    $0x1,%edi
  4020cb:	b8 00 00 00 00       	mov    $0x0,%eax
  4020d0:	e8 2b ed ff ff       	callq  400e00 <__printf_chk@plt>
  4020d5:	c7 05 3d 34 20 00 00 	movl   $0x0,0x20343d(%rip)        # 60551c <vlevel>
  4020dc:	00 00 00 
  4020df:	b8 00 00 00 00       	mov    $0x0,%eax
  4020e4:	e8 3b f9 ff ff       	callq  401a24 <test>
  4020e9:	83 3d 38 34 20 00 00 	cmpl   $0x0,0x203438(%rip)        # 605528 <is_checker>
  4020f0:	74 14                	je     402106 <launch+0x8d>
  4020f2:	bf 01 35 40 00       	mov    $0x403501,%edi
  4020f7:	e8 d4 eb ff ff       	callq  400cd0 <puts@plt>
  4020fc:	b8 00 00 00 00       	mov    $0x0,%eax
  402101:	e8 d2 fa ff ff       	callq  401bd8 <check_fail>
  402106:	bf 0c 35 40 00       	mov    $0x40350c,%edi
  40210b:	e8 c0 eb ff ff       	callq  400cd0 <puts@plt>
  402110:	48 8b 45 f8          	mov    -0x8(%rbp),%rax
  402114:	64 48 33 04 25 28 00 	xor    %fs:0x28,%rax
  40211b:	00 00 
  40211d:	74 05                	je     402124 <launch+0xab>
  40211f:	e8 cc eb ff ff       	callq  400cf0 <__stack_chk_fail@plt>
  402124:	c9                   	leaveq 
  402125:	c3                   	retq   

0000000000402126 <stable_launch>:
  402126:	53                   	push   %rbx
  402127:	48 89 3d da 33 20 00 	mov    %rdi,0x2033da(%rip)        # 605508 <global_offset>
  40212e:	41 b9 00 00 00 00    	mov    $0x0,%r9d
  402134:	41 b8 00 00 00 00    	mov    $0x0,%r8d
  40213a:	b9 32 01 00 00       	mov    $0x132,%ecx
  40213f:	ba 07 00 00 00       	mov    $0x7,%edx
  402144:	be 00 00 10 00       	mov    $0x100000,%esi
  402149:	bf 00 60 58 55       	mov    $0x55586000,%edi
  40214e:	e8 ad eb ff ff       	callq  400d00 <mmap@plt>
  402153:	48 89 c3             	mov    %rax,%rbx
  402156:	48 3d 00 60 58 55    	cmp    $0x55586000,%rax
  40215c:	74 37                	je     402195 <stable_launch+0x6f>
  40215e:	be 00 00 10 00       	mov    $0x100000,%esi
  402163:	48 89 c7             	mov    %rax,%rdi
  402166:	e8 85 ec ff ff       	callq  400df0 <munmap@plt>
  40216b:	b9 00 60 58 55       	mov    $0x55586000,%ecx
  402170:	ba c0 36 40 00       	mov    $0x4036c0,%edx
  402175:	be 01 00 00 00       	mov    $0x1,%esi
  40217a:	48 8b 3d 5f 33 20 00 	mov    0x20335f(%rip),%rdi        # 6054e0 <stderr@@GLIBC_2.2.5>
  402181:	b8 00 00 00 00       	mov    $0x0,%eax
  402186:	e8 e5 ec ff ff       	callq  400e70 <__fprintf_chk@plt>
  40218b:	bf 01 00 00 00       	mov    $0x1,%edi
  402190:	e8 bb ec ff ff       	callq  400e50 <exit@plt>
  402195:	48 8d 90 f8 ff 0f 00 	lea    0xffff8(%rax),%rdx
  40219c:	48 89 15 ad 3f 20 00 	mov    %rdx,0x203fad(%rip)        # 606150 <stack_top>
  4021a3:	48 89 e0             	mov    %rsp,%rax
  4021a6:	48 89 d4             	mov    %rdx,%rsp
  4021a9:	48 89 c2             	mov    %rax,%rdx
  4021ac:	48 89 15 4d 33 20 00 	mov    %rdx,0x20334d(%rip)        # 605500 <global_save_stack>
  4021b3:	48 8b 3d 4e 33 20 00 	mov    0x20334e(%rip),%rdi        # 605508 <global_offset>
  4021ba:	e8 ba fe ff ff       	callq  402079 <launch>
  4021bf:	48 8b 05 3a 33 20 00 	mov    0x20333a(%rip),%rax        # 605500 <global_save_stack>
  4021c6:	48 89 c4             	mov    %rax,%rsp
  4021c9:	be 00 00 10 00       	mov    $0x100000,%esi
  4021ce:	48 89 df             	mov    %rbx,%rdi
  4021d1:	e8 1a ec ff ff       	callq  400df0 <munmap@plt>
  4021d6:	5b                   	pop    %rbx
  4021d7:	c3                   	retq   

00000000004021d8 <rio_readinitb>:
  4021d8:	89 37                	mov    %esi,(%rdi)
  4021da:	c7 47 04 00 00 00 00 	movl   $0x0,0x4(%rdi)
  4021e1:	48 8d 47 10          	lea    0x10(%rdi),%rax
  4021e5:	48 89 47 08          	mov    %rax,0x8(%rdi)
  4021e9:	c3                   	retq   

00000000004021ea <sigalrm_handler>:
  4021ea:	48 83 ec 08          	sub    $0x8,%rsp
  4021ee:	b9 00 00 00 00       	mov    $0x0,%ecx
  4021f3:	ba 00 37 40 00       	mov    $0x403700,%edx
  4021f8:	be 01 00 00 00       	mov    $0x1,%esi
  4021fd:	48 8b 3d dc 32 20 00 	mov    0x2032dc(%rip),%rdi        # 6054e0 <stderr@@GLIBC_2.2.5>
  402204:	b8 00 00 00 00       	mov    $0x0,%eax
  402209:	e8 62 ec ff ff       	callq  400e70 <__fprintf_chk@plt>
  40220e:	bf 01 00 00 00       	mov    $0x1,%edi
  402213:	e8 38 ec ff ff       	callq  400e50 <exit@plt>

0000000000402218 <rio_writen>:
  402218:	41 55                	push   %r13
  40221a:	41 54                	push   %r12
  40221c:	55                   	push   %rbp
  40221d:	53                   	push   %rbx
  40221e:	48 83 ec 08          	sub    $0x8,%rsp
  402222:	41 89 fc             	mov    %edi,%r12d
  402225:	48 89 f5             	mov    %rsi,%rbp
  402228:	49 89 d5             	mov    %rdx,%r13
  40222b:	48 89 d3             	mov    %rdx,%rbx
  40222e:	eb 28                	jmp    402258 <rio_writen+0x40>
  402230:	48 89 da             	mov    %rbx,%rdx
  402233:	48 89 ee             	mov    %rbp,%rsi
  402236:	44 89 e7             	mov    %r12d,%edi
  402239:	e8 a2 ea ff ff       	callq  400ce0 <write@plt>
  40223e:	48 85 c0             	test   %rax,%rax
  402241:	7f 0f                	jg     402252 <rio_writen+0x3a>
  402243:	e8 48 ea ff ff       	callq  400c90 <__errno_location@plt>
  402248:	83 38 04             	cmpl   $0x4,(%rax)
  40224b:	75 15                	jne    402262 <rio_writen+0x4a>
  40224d:	b8 00 00 00 00       	mov    $0x0,%eax
  402252:	48 29 c3             	sub    %rax,%rbx
  402255:	48 01 c5             	add    %rax,%rbp
  402258:	48 85 db             	test   %rbx,%rbx
  40225b:	75 d3                	jne    402230 <rio_writen+0x18>
  40225d:	4c 89 e8             	mov    %r13,%rax
  402260:	eb 07                	jmp    402269 <rio_writen+0x51>
  402262:	48 c7 c0 ff ff ff ff 	mov    $0xffffffffffffffff,%rax
  402269:	48 83 c4 08          	add    $0x8,%rsp
  40226d:	5b                   	pop    %rbx
  40226e:	5d                   	pop    %rbp
  40226f:	41 5c                	pop    %r12
  402271:	41 5d                	pop    %r13
  402273:	c3                   	retq   

0000000000402274 <rio_read>:
  402274:	41 55                	push   %r13
  402276:	41 54                	push   %r12
  402278:	55                   	push   %rbp
  402279:	53                   	push   %rbx
  40227a:	48 83 ec 08          	sub    $0x8,%rsp
  40227e:	48 89 fb             	mov    %rdi,%rbx
  402281:	49 89 f5             	mov    %rsi,%r13
  402284:	49 89 d4             	mov    %rdx,%r12
  402287:	eb 2e                	jmp    4022b7 <rio_read+0x43>
  402289:	48 8d 6b 10          	lea    0x10(%rbx),%rbp
  40228d:	8b 3b                	mov    (%rbx),%edi
  40228f:	ba 00 20 00 00       	mov    $0x2000,%edx
  402294:	48 89 ee             	mov    %rbp,%rsi
  402297:	e8 a4 ea ff ff       	callq  400d40 <read@plt>
  40229c:	89 43 04             	mov    %eax,0x4(%rbx)
  40229f:	85 c0                	test   %eax,%eax
  4022a1:	79 0c                	jns    4022af <rio_read+0x3b>
  4022a3:	e8 e8 e9 ff ff       	callq  400c90 <__errno_location@plt>
  4022a8:	83 38 04             	cmpl   $0x4,(%rax)
  4022ab:	74 0a                	je     4022b7 <rio_read+0x43>
  4022ad:	eb 37                	jmp    4022e6 <rio_read+0x72>
  4022af:	85 c0                	test   %eax,%eax
  4022b1:	74 3c                	je     4022ef <rio_read+0x7b>
  4022b3:	48 89 6b 08          	mov    %rbp,0x8(%rbx)
  4022b7:	8b 6b 04             	mov    0x4(%rbx),%ebp
  4022ba:	85 ed                	test   %ebp,%ebp
  4022bc:	7e cb                	jle    402289 <rio_read+0x15>
  4022be:	89 e8                	mov    %ebp,%eax
  4022c0:	49 39 c4             	cmp    %rax,%r12
  4022c3:	77 03                	ja     4022c8 <rio_read+0x54>
  4022c5:	44 89 e5             	mov    %r12d,%ebp
  4022c8:	4c 63 e5             	movslq %ebp,%r12
  4022cb:	48 8b 73 08          	mov    0x8(%rbx),%rsi
  4022cf:	4c 89 e2             	mov    %r12,%rdx
  4022d2:	4c 89 ef             	mov    %r13,%rdi
  4022d5:	e8 c6 ea ff ff       	callq  400da0 <memcpy@plt>
  4022da:	4c 01 63 08          	add    %r12,0x8(%rbx)
  4022de:	29 6b 04             	sub    %ebp,0x4(%rbx)
  4022e1:	4c 89 e0             	mov    %r12,%rax
  4022e4:	eb 0e                	jmp    4022f4 <rio_read+0x80>
  4022e6:	48 c7 c0 ff ff ff ff 	mov    $0xffffffffffffffff,%rax
  4022ed:	eb 05                	jmp    4022f4 <rio_read+0x80>
  4022ef:	b8 00 00 00 00       	mov    $0x0,%eax
  4022f4:	48 83 c4 08          	add    $0x8,%rsp
  4022f8:	5b                   	pop    %rbx
  4022f9:	5d                   	pop    %rbp
  4022fa:	41 5c                	pop    %r12
  4022fc:	41 5d                	pop    %r13
  4022fe:	c3                   	retq   

00000000004022ff <rio_readlineb>:
  4022ff:	41 55                	push   %r13
  402301:	41 54                	push   %r12
  402303:	55                   	push   %rbp
  402304:	53                   	push   %rbx
  402305:	48 83 ec 18          	sub    $0x18,%rsp
  402309:	49 89 fd             	mov    %rdi,%r13
  40230c:	48 89 f5             	mov    %rsi,%rbp
  40230f:	49 89 d4             	mov    %rdx,%r12
  402312:	64 48 8b 04 25 28 00 	mov    %fs:0x28,%rax
  402319:	00 00 
  40231b:	48 89 44 24 08       	mov    %rax,0x8(%rsp)
  402320:	31 c0                	xor    %eax,%eax
  402322:	bb 01 00 00 00       	mov    $0x1,%ebx
  402327:	eb 3f                	jmp    402368 <rio_readlineb+0x69>
  402329:	ba 01 00 00 00       	mov    $0x1,%edx
  40232e:	48 8d 74 24 07       	lea    0x7(%rsp),%rsi
  402333:	4c 89 ef             	mov    %r13,%rdi
  402336:	e8 39 ff ff ff       	callq  402274 <rio_read>
  40233b:	83 f8 01             	cmp    $0x1,%eax
  40233e:	75 15                	jne    402355 <rio_readlineb+0x56>
  402340:	48 8d 45 01          	lea    0x1(%rbp),%rax
  402344:	0f b6 54 24 07       	movzbl 0x7(%rsp),%edx
  402349:	88 55 00             	mov    %dl,0x0(%rbp)
  40234c:	80 7c 24 07 0a       	cmpb   $0xa,0x7(%rsp)
  402351:	75 0e                	jne    402361 <rio_readlineb+0x62>
  402353:	eb 1a                	jmp    40236f <rio_readlineb+0x70>
  402355:	85 c0                	test   %eax,%eax
  402357:	75 22                	jne    40237b <rio_readlineb+0x7c>
  402359:	48 83 fb 01          	cmp    $0x1,%rbx
  40235d:	75 13                	jne    402372 <rio_readlineb+0x73>
  40235f:	eb 23                	jmp    402384 <rio_readlineb+0x85>
  402361:	48 83 c3 01          	add    $0x1,%rbx
  402365:	48 89 c5             	mov    %rax,%rbp
  402368:	4c 39 e3             	cmp    %r12,%rbx
  40236b:	72 bc                	jb     402329 <rio_readlineb+0x2a>
  40236d:	eb 03                	jmp    402372 <rio_readlineb+0x73>
  40236f:	48 89 c5             	mov    %rax,%rbp
  402372:	c6 45 00 00          	movb   $0x0,0x0(%rbp)
  402376:	48 89 d8             	mov    %rbx,%rax
  402379:	eb 0e                	jmp    402389 <rio_readlineb+0x8a>
  40237b:	48 c7 c0 ff ff ff ff 	mov    $0xffffffffffffffff,%rax
  402382:	eb 05                	jmp    402389 <rio_readlineb+0x8a>
  402384:	b8 00 00 00 00       	mov    $0x0,%eax
  402389:	48 8b 4c 24 08       	mov    0x8(%rsp),%rcx
  40238e:	64 48 33 0c 25 28 00 	xor    %fs:0x28,%rcx
  402395:	00 00 
  402397:	74 05                	je     40239e <rio_readlineb+0x9f>
  402399:	e8 52 e9 ff ff       	callq  400cf0 <__stack_chk_fail@plt>
  40239e:	48 83 c4 18          	add    $0x18,%rsp
  4023a2:	5b                   	pop    %rbx
  4023a3:	5d                   	pop    %rbp
  4023a4:	41 5c                	pop    %r12
  4023a6:	41 5d                	pop    %r13
  4023a8:	c3                   	retq   

00000000004023a9 <urlencode>:
  4023a9:	41 54                	push   %r12
  4023ab:	55                   	push   %rbp
  4023ac:	53                   	push   %rbx
  4023ad:	48 83 ec 10          	sub    $0x10,%rsp
  4023b1:	48 89 fb             	mov    %rdi,%rbx
  4023b4:	48 89 f5             	mov    %rsi,%rbp
  4023b7:	64 48 8b 04 25 28 00 	mov    %fs:0x28,%rax
  4023be:	00 00 
  4023c0:	48 89 44 24 08       	mov    %rax,0x8(%rsp)
  4023c5:	31 c0                	xor    %eax,%eax
  4023c7:	48 c7 c1 ff ff ff ff 	mov    $0xffffffffffffffff,%rcx
  4023ce:	f2 ae                	repnz scas %es:(%rdi),%al
  4023d0:	48 f7 d1             	not    %rcx
  4023d3:	8d 41 ff             	lea    -0x1(%rcx),%eax
  4023d6:	e9 aa 00 00 00       	jmpq   402485 <urlencode+0xdc>
  4023db:	44 0f b6 03          	movzbl (%rbx),%r8d
  4023df:	41 80 f8 2a          	cmp    $0x2a,%r8b
  4023e3:	0f 94 c2             	sete   %dl
  4023e6:	41 80 f8 2d          	cmp    $0x2d,%r8b
  4023ea:	0f 94 c0             	sete   %al
  4023ed:	08 c2                	or     %al,%dl
  4023ef:	75 24                	jne    402415 <urlencode+0x6c>
  4023f1:	41 80 f8 2e          	cmp    $0x2e,%r8b
  4023f5:	74 1e                	je     402415 <urlencode+0x6c>
  4023f7:	41 80 f8 5f          	cmp    $0x5f,%r8b
  4023fb:	74 18                	je     402415 <urlencode+0x6c>
  4023fd:	41 8d 40 d0          	lea    -0x30(%r8),%eax
  402401:	3c 09                	cmp    $0x9,%al
  402403:	76 10                	jbe    402415 <urlencode+0x6c>
  402405:	41 8d 40 bf          	lea    -0x41(%r8),%eax
  402409:	3c 19                	cmp    $0x19,%al
  40240b:	76 08                	jbe    402415 <urlencode+0x6c>
  40240d:	41 8d 40 9f          	lea    -0x61(%r8),%eax
  402411:	3c 19                	cmp    $0x19,%al
  402413:	77 0a                	ja     40241f <urlencode+0x76>
  402415:	44 88 45 00          	mov    %r8b,0x0(%rbp)
  402419:	48 8d 6d 01          	lea    0x1(%rbp),%rbp
  40241d:	eb 5f                	jmp    40247e <urlencode+0xd5>
  40241f:	41 80 f8 20          	cmp    $0x20,%r8b
  402423:	75 0a                	jne    40242f <urlencode+0x86>
  402425:	c6 45 00 2b          	movb   $0x2b,0x0(%rbp)
  402429:	48 8d 6d 01          	lea    0x1(%rbp),%rbp
  40242d:	eb 4f                	jmp    40247e <urlencode+0xd5>
  40242f:	41 8d 40 e0          	lea    -0x20(%r8),%eax
  402433:	3c 5f                	cmp    $0x5f,%al
  402435:	0f 96 c2             	setbe  %dl
  402438:	41 80 f8 09          	cmp    $0x9,%r8b
  40243c:	0f 94 c0             	sete   %al
  40243f:	08 c2                	or     %al,%dl
  402441:	74 50                	je     402493 <urlencode+0xea>
  402443:	45 0f b6 c0          	movzbl %r8b,%r8d
  402447:	b9 98 37 40 00       	mov    $0x403798,%ecx
  40244c:	ba 08 00 00 00       	mov    $0x8,%edx
  402451:	be 01 00 00 00       	mov    $0x1,%esi
  402456:	48 89 e7             	mov    %rsp,%rdi
  402459:	b8 00 00 00 00       	mov    $0x0,%eax
  40245e:	e8 1d ea ff ff       	callq  400e80 <__sprintf_chk@plt>
  402463:	0f b6 04 24          	movzbl (%rsp),%eax
  402467:	88 45 00             	mov    %al,0x0(%rbp)
  40246a:	0f b6 44 24 01       	movzbl 0x1(%rsp),%eax
  40246f:	88 45 01             	mov    %al,0x1(%rbp)
  402472:	0f b6 44 24 02       	movzbl 0x2(%rsp),%eax
  402477:	88 45 02             	mov    %al,0x2(%rbp)
  40247a:	48 8d 6d 03          	lea    0x3(%rbp),%rbp
  40247e:	48 83 c3 01          	add    $0x1,%rbx
  402482:	44 89 e0             	mov    %r12d,%eax
  402485:	44 8d 60 ff          	lea    -0x1(%rax),%r12d
  402489:	85 c0                	test   %eax,%eax
  40248b:	0f 85 4a ff ff ff    	jne    4023db <urlencode+0x32>
  402491:	eb 05                	jmp    402498 <urlencode+0xef>
  402493:	b8 ff ff ff ff       	mov    $0xffffffff,%eax
  402498:	48 8b 74 24 08       	mov    0x8(%rsp),%rsi
  40249d:	64 48 33 34 25 28 00 	xor    %fs:0x28,%rsi
  4024a4:	00 00 
  4024a6:	74 05                	je     4024ad <urlencode+0x104>
  4024a8:	e8 43 e8 ff ff       	callq  400cf0 <__stack_chk_fail@plt>
  4024ad:	48 83 c4 10          	add    $0x10,%rsp
  4024b1:	5b                   	pop    %rbx
  4024b2:	5d                   	pop    %rbp
  4024b3:	41 5c                	pop    %r12
  4024b5:	c3                   	retq   

00000000004024b6 <submitr>:
  4024b6:	41 57                	push   %r15
  4024b8:	41 56                	push   %r14
  4024ba:	41 55                	push   %r13
  4024bc:	41 54                	push   %r12
  4024be:	55                   	push   %rbp
  4024bf:	53                   	push   %rbx
  4024c0:	48 81 ec 58 a0 00 00 	sub    $0xa058,%rsp
  4024c7:	49 89 fc             	mov    %rdi,%r12
  4024ca:	89 74 24 04          	mov    %esi,0x4(%rsp)
  4024ce:	49 89 d7             	mov    %rdx,%r15
  4024d1:	49 89 ce             	mov    %rcx,%r14
  4024d4:	4c 89 44 24 08       	mov    %r8,0x8(%rsp)
  4024d9:	4d 89 cd             	mov    %r9,%r13
  4024dc:	48 8b 9c 24 90 a0 00 	mov    0xa090(%rsp),%rbx
  4024e3:	00 
  4024e4:	64 48 8b 04 25 28 00 	mov    %fs:0x28,%rax
  4024eb:	00 00 
  4024ed:	48 89 84 24 48 a0 00 	mov    %rax,0xa048(%rsp)
  4024f4:	00 
  4024f5:	31 c0                	xor    %eax,%eax
  4024f7:	c7 44 24 1c 00 00 00 	movl   $0x0,0x1c(%rsp)
  4024fe:	00 
  4024ff:	ba 00 00 00 00       	mov    $0x0,%edx
  402504:	be 01 00 00 00       	mov    $0x1,%esi
  402509:	bf 02 00 00 00       	mov    $0x2,%edi
  40250e:	e8 7d e9 ff ff       	callq  400e90 <socket@plt>
  402513:	85 c0                	test   %eax,%eax
  402515:	79 4e                	jns    402565 <submitr+0xaf>
  402517:	48 b8 45 72 72 6f 72 	movabs $0x43203a726f727245,%rax
  40251e:	3a 20 43 
  402521:	48 89 03             	mov    %rax,(%rbx)
  402524:	48 b8 6c 69 65 6e 74 	movabs $0x6e7520746e65696c,%rax
  40252b:	20 75 6e 
  40252e:	48 89 43 08          	mov    %rax,0x8(%rbx)
  402532:	48 b8 61 62 6c 65 20 	movabs $0x206f7420656c6261,%rax
  402539:	74 6f 20 
  40253c:	48 89 43 10          	mov    %rax,0x10(%rbx)
  402540:	48 b8 63 72 65 61 74 	movabs $0x7320657461657263,%rax
  402547:	65 20 73 
  40254a:	48 89 43 18          	mov    %rax,0x18(%rbx)
  40254e:	c7 43 20 6f 63 6b 65 	movl   $0x656b636f,0x20(%rbx)
  402555:	66 c7 43 24 74 00    	movw   $0x74,0x24(%rbx)
  40255b:	b8 ff ff ff ff       	mov    $0xffffffff,%eax
  402560:	e9 97 06 00 00       	jmpq   402bfc <submitr+0x746>
  402565:	89 c5                	mov    %eax,%ebp
  402567:	4c 89 e7             	mov    %r12,%rdi
  40256a:	e8 01 e8 ff ff       	callq  400d70 <gethostbyname@plt>
  40256f:	48 85 c0             	test   %rax,%rax
  402572:	75 67                	jne    4025db <submitr+0x125>
  402574:	48 b8 45 72 72 6f 72 	movabs $0x44203a726f727245,%rax
  40257b:	3a 20 44 
  40257e:	48 89 03             	mov    %rax,(%rbx)
  402581:	48 b8 4e 53 20 69 73 	movabs $0x6e7520736920534e,%rax
  402588:	20 75 6e 
  40258b:	48 89 43 08          	mov    %rax,0x8(%rbx)
  40258f:	48 b8 61 62 6c 65 20 	movabs $0x206f7420656c6261,%rax
  402596:	74 6f 20 
  402599:	48 89 43 10          	mov    %rax,0x10(%rbx)
  40259d:	48 b8 72 65 73 6f 6c 	movabs $0x2065766c6f736572,%rax
  4025a4:	76 65 20 
  4025a7:	48 89 43 18          	mov    %rax,0x18(%rbx)
  4025ab:	48 b8 73 65 72 76 65 	movabs $0x6120726576726573,%rax
  4025b2:	72 20 61 
  4025b5:	48 89 43 20          	mov    %rax,0x20(%rbx)
  4025b9:	c7 43 28 64 64 72 65 	movl   $0x65726464,0x28(%rbx)
  4025c0:	66 c7 43 2c 73 73    	movw   $0x7373,0x2c(%rbx)
  4025c6:	c6 43 2e 00          	movb   $0x0,0x2e(%rbx)
  4025ca:	89 ef                	mov    %ebp,%edi
  4025cc:	e8 5f e7 ff ff       	callq  400d30 <close@plt>
  4025d1:	b8 ff ff ff ff       	mov    $0xffffffff,%eax
  4025d6:	e9 21 06 00 00       	jmpq   402bfc <submitr+0x746>
  4025db:	48 c7 44 24 20 00 00 	movq   $0x0,0x20(%rsp)
  4025e2:	00 00 
  4025e4:	48 c7 44 24 28 00 00 	movq   $0x0,0x28(%rsp)
  4025eb:	00 00 
  4025ed:	66 c7 44 24 20 02 00 	movw   $0x2,0x20(%rsp)
  4025f4:	48 63 50 14          	movslq 0x14(%rax),%rdx
  4025f8:	48 8b 40 18          	mov    0x18(%rax),%rax
  4025fc:	48 8b 30             	mov    (%rax),%rsi
  4025ff:	48 8d 7c 24 24       	lea    0x24(%rsp),%rdi
  402604:	b9 0c 00 00 00       	mov    $0xc,%ecx
  402609:	e8 72 e7 ff ff       	callq  400d80 <__memmove_chk@plt>
  40260e:	0f b7 44 24 04       	movzwl 0x4(%rsp),%eax
  402613:	66 c1 c8 08          	ror    $0x8,%ax
  402617:	66 89 44 24 22       	mov    %ax,0x22(%rsp)
  40261c:	ba 10 00 00 00       	mov    $0x10,%edx
  402621:	48 8d 74 24 20       	lea    0x20(%rsp),%rsi
  402626:	89 ef                	mov    %ebp,%edi
  402628:	e8 33 e8 ff ff       	callq  400e60 <connect@plt>
  40262d:	85 c0                	test   %eax,%eax
  40262f:	79 59                	jns    40268a <submitr+0x1d4>
  402631:	48 b8 45 72 72 6f 72 	movabs $0x55203a726f727245,%rax
  402638:	3a 20 55 
  40263b:	48 89 03             	mov    %rax,(%rbx)
  40263e:	48 b8 6e 61 62 6c 65 	movabs $0x6f7420656c62616e,%rax
  402645:	20 74 6f 
  402648:	48 89 43 08          	mov    %rax,0x8(%rbx)
  40264c:	48 b8 20 63 6f 6e 6e 	movabs $0x7463656e6e6f6320,%rax
  402653:	65 63 74 
  402656:	48 89 43 10          	mov    %rax,0x10(%rbx)
  40265a:	48 b8 20 74 6f 20 74 	movabs $0x20656874206f7420,%rax
  402661:	68 65 20 
  402664:	48 89 43 18          	mov    %rax,0x18(%rbx)
  402668:	c7 43 20 73 65 72 76 	movl   $0x76726573,0x20(%rbx)
  40266f:	66 c7 43 24 65 72    	movw   $0x7265,0x24(%rbx)
  402675:	c6 43 26 00          	movb   $0x0,0x26(%rbx)
  402679:	89 ef                	mov    %ebp,%edi
  40267b:	e8 b0 e6 ff ff       	callq  400d30 <close@plt>
  402680:	b8 ff ff ff ff       	mov    $0xffffffff,%eax
  402685:	e9 72 05 00 00       	jmpq   402bfc <submitr+0x746>
  40268a:	48 c7 c6 ff ff ff ff 	mov    $0xffffffffffffffff,%rsi
  402691:	b8 00 00 00 00       	mov    $0x0,%eax
  402696:	48 89 f1             	mov    %rsi,%rcx
  402699:	4c 89 ef             	mov    %r13,%rdi
  40269c:	f2 ae                	repnz scas %es:(%rdi),%al
  40269e:	48 f7 d1             	not    %rcx
  4026a1:	48 89 ca             	mov    %rcx,%rdx
  4026a4:	48 89 f1             	mov    %rsi,%rcx
  4026a7:	4c 89 ff             	mov    %r15,%rdi
  4026aa:	f2 ae                	repnz scas %es:(%rdi),%al
  4026ac:	48 f7 d1             	not    %rcx
  4026af:	49 89 c8             	mov    %rcx,%r8
  4026b2:	48 89 f1             	mov    %rsi,%rcx
  4026b5:	4c 89 f7             	mov    %r14,%rdi
  4026b8:	f2 ae                	repnz scas %es:(%rdi),%al
  4026ba:	48 f7 d1             	not    %rcx
  4026bd:	4d 8d 44 08 fe       	lea    -0x2(%r8,%rcx,1),%r8
  4026c2:	48 89 f1             	mov    %rsi,%rcx
  4026c5:	48 8b 7c 24 08       	mov    0x8(%rsp),%rdi
  4026ca:	f2 ae                	repnz scas %es:(%rdi),%al
  4026cc:	48 89 c8             	mov    %rcx,%rax
  4026cf:	48 f7 d0             	not    %rax
  4026d2:	49 8d 4c 00 ff       	lea    -0x1(%r8,%rax,1),%rcx
  4026d7:	48 8d 44 52 fd       	lea    -0x3(%rdx,%rdx,2),%rax
  4026dc:	48 8d 84 01 80 00 00 	lea    0x80(%rcx,%rax,1),%rax
  4026e3:	00 
  4026e4:	48 3d 00 20 00 00    	cmp    $0x2000,%rax
  4026ea:	76 72                	jbe    40275e <submitr+0x2a8>
  4026ec:	48 b8 45 72 72 6f 72 	movabs $0x52203a726f727245,%rax
  4026f3:	3a 20 52 
  4026f6:	48 89 03             	mov    %rax,(%rbx)
  4026f9:	48 b8 65 73 75 6c 74 	movabs $0x747320746c757365,%rax
  402700:	20 73 74 
  402703:	48 89 43 08          	mov    %rax,0x8(%rbx)
  402707:	48 b8 72 69 6e 67 20 	movabs $0x6f6f7420676e6972,%rax
  40270e:	74 6f 6f 
  402711:	48 89 43 10          	mov    %rax,0x10(%rbx)
  402715:	48 b8 20 6c 61 72 67 	movabs $0x202e656772616c20,%rax
  40271c:	65 2e 20 
  40271f:	48 89 43 18          	mov    %rax,0x18(%rbx)
  402723:	48 b8 49 6e 63 72 65 	movabs $0x6573616572636e49,%rax
  40272a:	61 73 65 
  40272d:	48 89 43 20          	mov    %rax,0x20(%rbx)
  402731:	48 b8 20 53 55 42 4d 	movabs $0x5254494d42555320,%rax
  402738:	49 54 52 
  40273b:	48 89 43 28          	mov    %rax,0x28(%rbx)
  40273f:	48 b8 5f 4d 41 58 42 	movabs $0x46554258414d5f,%rax
  402746:	55 46 00 
  402749:	48 89 43 30          	mov    %rax,0x30(%rbx)
  40274d:	89 ef                	mov    %ebp,%edi
  40274f:	e8 dc e5 ff ff       	callq  400d30 <close@plt>
  402754:	b8 ff ff ff ff       	mov    $0xffffffff,%eax
  402759:	e9 9e 04 00 00       	jmpq   402bfc <submitr+0x746>
  40275e:	48 8d b4 24 40 40 00 	lea    0x4040(%rsp),%rsi
  402765:	00 
  402766:	b9 00 04 00 00       	mov    $0x400,%ecx
  40276b:	b8 00 00 00 00       	mov    $0x0,%eax
  402770:	48 89 f7             	mov    %rsi,%rdi
  402773:	f3 48 ab             	rep stos %rax,%es:(%rdi)
  402776:	4c 89 ef             	mov    %r13,%rdi
  402779:	e8 2b fc ff ff       	callq  4023a9 <urlencode>
  40277e:	85 c0                	test   %eax,%eax
  402780:	0f 89 8a 00 00 00    	jns    402810 <submitr+0x35a>
  402786:	48 b8 45 72 72 6f 72 	movabs $0x52203a726f727245,%rax
  40278d:	3a 20 52 
  402790:	48 89 03             	mov    %rax,(%rbx)
  402793:	48 b8 65 73 75 6c 74 	movabs $0x747320746c757365,%rax
  40279a:	20 73 74 
  40279d:	48 89 43 08          	mov    %rax,0x8(%rbx)
  4027a1:	48 b8 72 69 6e 67 20 	movabs $0x6e6f6320676e6972,%rax
  4027a8:	63 6f 6e 
  4027ab:	48 89 43 10          	mov    %rax,0x10(%rbx)
  4027af:	48 b8 74 61 69 6e 73 	movabs $0x6e6120736e696174,%rax
  4027b6:	20 61 6e 
  4027b9:	48 89 43 18          	mov    %rax,0x18(%rbx)
  4027bd:	48 b8 20 69 6c 6c 65 	movabs $0x6c6167656c6c6920,%rax
  4027c4:	67 61 6c 
  4027c7:	48 89 43 20          	mov    %rax,0x20(%rbx)
  4027cb:	48 b8 20 6f 72 20 75 	movabs $0x72706e7520726f20,%rax
  4027d2:	6e 70 72 
  4027d5:	48 89 43 28          	mov    %rax,0x28(%rbx)
  4027d9:	48 b8 69 6e 74 61 62 	movabs $0x20656c6261746e69,%rax
  4027e0:	6c 65 20 
  4027e3:	48 89 43 30          	mov    %rax,0x30(%rbx)
  4027e7:	48 b8 63 68 61 72 61 	movabs $0x6574636172616863,%rax
  4027ee:	63 74 65 
  4027f1:	48 89 43 38          	mov    %rax,0x38(%rbx)
  4027f5:	66 c7 43 40 72 2e    	movw   $0x2e72,0x40(%rbx)
  4027fb:	c6 43 42 00          	movb   $0x0,0x42(%rbx)
  4027ff:	89 ef                	mov    %ebp,%edi
  402801:	e8 2a e5 ff ff       	callq  400d30 <close@plt>
  402806:	b8 ff ff ff ff       	mov    $0xffffffff,%eax
  40280b:	e9 ec 03 00 00       	jmpq   402bfc <submitr+0x746>
  402810:	4c 8d ac 24 40 20 00 	lea    0x2040(%rsp),%r13
  402817:	00 
  402818:	41 54                	push   %r12
  40281a:	48 8d 84 24 48 40 00 	lea    0x4048(%rsp),%rax
  402821:	00 
  402822:	50                   	push   %rax
  402823:	4d 89 f9             	mov    %r15,%r9
  402826:	4d 89 f0             	mov    %r14,%r8
  402829:	b9 28 37 40 00       	mov    $0x403728,%ecx
  40282e:	ba 00 20 00 00       	mov    $0x2000,%edx
  402833:	be 01 00 00 00       	mov    $0x1,%esi
  402838:	4c 89 ef             	mov    %r13,%rdi
  40283b:	b8 00 00 00 00       	mov    $0x0,%eax
  402840:	e8 3b e6 ff ff       	callq  400e80 <__sprintf_chk@plt>
  402845:	b8 00 00 00 00       	mov    $0x0,%eax
  40284a:	48 c7 c1 ff ff ff ff 	mov    $0xffffffffffffffff,%rcx
  402851:	4c 89 ef             	mov    %r13,%rdi
  402854:	f2 ae                	repnz scas %es:(%rdi),%al
  402856:	48 f7 d1             	not    %rcx
  402859:	48 8d 51 ff          	lea    -0x1(%rcx),%rdx
  40285d:	4c 89 ee             	mov    %r13,%rsi
  402860:	89 ef                	mov    %ebp,%edi
  402862:	e8 b1 f9 ff ff       	callq  402218 <rio_writen>
  402867:	48 83 c4 10          	add    $0x10,%rsp
  40286b:	48 85 c0             	test   %rax,%rax
  40286e:	79 6e                	jns    4028de <submitr+0x428>
  402870:	48 b8 45 72 72 6f 72 	movabs $0x43203a726f727245,%rax
  402877:	3a 20 43 
  40287a:	48 89 03             	mov    %rax,(%rbx)
  40287d:	48 b8 6c 69 65 6e 74 	movabs $0x6e7520746e65696c,%rax
  402884:	20 75 6e 
  402887:	48 89 43 08          	mov    %rax,0x8(%rbx)
  40288b:	48 b8 61 62 6c 65 20 	movabs $0x206f7420656c6261,%rax
  402892:	74 6f 20 
  402895:	48 89 43 10          	mov    %rax,0x10(%rbx)
  402899:	48 b8 77 72 69 74 65 	movabs $0x6f74206574697277,%rax
  4028a0:	20 74 6f 
  4028a3:	48 89 43 18          	mov    %rax,0x18(%rbx)
  4028a7:	48 b8 20 74 68 65 20 	movabs $0x7365722065687420,%rax
  4028ae:	72 65 73 
  4028b1:	48 89 43 20          	mov    %rax,0x20(%rbx)
  4028b5:	48 b8 75 6c 74 20 73 	movabs $0x7672657320746c75,%rax
  4028bc:	65 72 76 
  4028bf:	48 89 43 28          	mov    %rax,0x28(%rbx)
  4028c3:	66 c7 43 30 65 72    	movw   $0x7265,0x30(%rbx)
  4028c9:	c6 43 32 00          	movb   $0x0,0x32(%rbx)
  4028cd:	89 ef                	mov    %ebp,%edi
  4028cf:	e8 5c e4 ff ff       	callq  400d30 <close@plt>
  4028d4:	b8 ff ff ff ff       	mov    $0xffffffff,%eax
  4028d9:	e9 1e 03 00 00       	jmpq   402bfc <submitr+0x746>
  4028de:	89 ee                	mov    %ebp,%esi
  4028e0:	48 8d 7c 24 30       	lea    0x30(%rsp),%rdi
  4028e5:	e8 ee f8 ff ff       	callq  4021d8 <rio_readinitb>
  4028ea:	ba 00 20 00 00       	mov    $0x2000,%edx
  4028ef:	48 8d b4 24 40 20 00 	lea    0x2040(%rsp),%rsi
  4028f6:	00 
  4028f7:	48 8d 7c 24 30       	lea    0x30(%rsp),%rdi
  4028fc:	e8 fe f9 ff ff       	callq  4022ff <rio_readlineb>
  402901:	48 85 c0             	test   %rax,%rax
  402904:	7f 7d                	jg     402983 <submitr+0x4cd>
  402906:	48 b8 45 72 72 6f 72 	movabs $0x43203a726f727245,%rax
  40290d:	3a 20 43 
  402910:	48 89 03             	mov    %rax,(%rbx)
  402913:	48 b8 6c 69 65 6e 74 	movabs $0x6e7520746e65696c,%rax
  40291a:	20 75 6e 
  40291d:	48 89 43 08          	mov    %rax,0x8(%rbx)
  402921:	48 b8 61 62 6c 65 20 	movabs $0x206f7420656c6261,%rax
  402928:	74 6f 20 
  40292b:	48 89 43 10          	mov    %rax,0x10(%rbx)
  40292f:	48 b8 72 65 61 64 20 	movabs $0x7269662064616572,%rax
  402936:	66 69 72 
  402939:	48 89 43 18          	mov    %rax,0x18(%rbx)
  40293d:	48 b8 73 74 20 68 65 	movabs $0x6564616568207473,%rax
  402944:	61 64 65 
  402947:	48 89 43 20          	mov    %rax,0x20(%rbx)
  40294b:	48 b8 72 20 66 72 6f 	movabs $0x72206d6f72662072,%rax
  402952:	6d 20 72 
  402955:	48 89 43 28          	mov    %rax,0x28(%rbx)
  402959:	48 b8 65 73 75 6c 74 	movabs $0x657320746c757365,%rax
  402960:	20 73 65 
  402963:	48 89 43 30          	mov    %rax,0x30(%rbx)
  402967:	c7 43 38 72 76 65 72 	movl   $0x72657672,0x38(%rbx)
  40296e:	c6 43 3c 00          	movb   $0x0,0x3c(%rbx)
  402972:	89 ef                	mov    %ebp,%edi
  402974:	e8 b7 e3 ff ff       	callq  400d30 <close@plt>
  402979:	b8 ff ff ff ff       	mov    $0xffffffff,%eax
  40297e:	e9 79 02 00 00       	jmpq   402bfc <submitr+0x746>
  402983:	4c 8d 84 24 40 80 00 	lea    0x8040(%rsp),%r8
  40298a:	00 
  40298b:	48 8d 4c 24 1c       	lea    0x1c(%rsp),%rcx
  402990:	48 8d 94 24 40 60 00 	lea    0x6040(%rsp),%rdx
  402997:	00 
  402998:	be 9f 37 40 00       	mov    $0x40379f,%esi
  40299d:	48 8d bc 24 40 20 00 	lea    0x2040(%rsp),%rdi
  4029a4:	00 
  4029a5:	b8 00 00 00 00       	mov    $0x0,%eax
  4029aa:	e8 31 e4 ff ff       	callq  400de0 <__isoc99_sscanf@plt>
  4029af:	e9 95 00 00 00       	jmpq   402a49 <submitr+0x593>
  4029b4:	ba 00 20 00 00       	mov    $0x2000,%edx
  4029b9:	48 8d b4 24 40 20 00 	lea    0x2040(%rsp),%rsi
  4029c0:	00 
  4029c1:	48 8d 7c 24 30       	lea    0x30(%rsp),%rdi
  4029c6:	e8 34 f9 ff ff       	callq  4022ff <rio_readlineb>
  4029cb:	48 85 c0             	test   %rax,%rax
  4029ce:	7f 79                	jg     402a49 <submitr+0x593>
  4029d0:	48 b8 45 72 72 6f 72 	movabs $0x43203a726f727245,%rax
  4029d7:	3a 20 43 
  4029da:	48 89 03             	mov    %rax,(%rbx)
  4029dd:	48 b8 6c 69 65 6e 74 	movabs $0x6e7520746e65696c,%rax
  4029e4:	20 75 6e 
  4029e7:	48 89 43 08          	mov    %rax,0x8(%rbx)
  4029eb:	48 b8 61 62 6c 65 20 	movabs $0x206f7420656c6261,%rax
  4029f2:	74 6f 20 
  4029f5:	48 89 43 10          	mov    %rax,0x10(%rbx)
  4029f9:	48 b8 72 65 61 64 20 	movabs $0x6165682064616572,%rax
  402a00:	68 65 61 
  402a03:	48 89 43 18          	mov    %rax,0x18(%rbx)
  402a07:	48 b8 64 65 72 73 20 	movabs $0x6f72662073726564,%rax
  402a0e:	66 72 6f 
  402a11:	48 89 43 20          	mov    %rax,0x20(%rbx)
  402a15:	48 b8 6d 20 74 68 65 	movabs $0x657220656874206d,%rax
  402a1c:	20 72 65 
  402a1f:	48 89 43 28          	mov    %rax,0x28(%rbx)
  402a23:	48 b8 73 75 6c 74 20 	movabs $0x72657320746c7573,%rax
  402a2a:	73 65 72 
  402a2d:	48 89 43 30          	mov    %rax,0x30(%rbx)
  402a31:	c7 43 38 76 65 72 00 	movl   $0x726576,0x38(%rbx)
  402a38:	89 ef                	mov    %ebp,%edi
  402a3a:	e8 f1 e2 ff ff       	callq  400d30 <close@plt>
  402a3f:	b8 ff ff ff ff       	mov    $0xffffffff,%eax
  402a44:	e9 b3 01 00 00       	jmpq   402bfc <submitr+0x746>
  402a49:	0f b6 94 24 40 20 00 	movzbl 0x2040(%rsp),%edx
  402a50:	00 
  402a51:	b8 0d 00 00 00       	mov    $0xd,%eax
  402a56:	29 d0                	sub    %edx,%eax
  402a58:	75 1b                	jne    402a75 <submitr+0x5bf>
  402a5a:	0f b6 94 24 41 20 00 	movzbl 0x2041(%rsp),%edx
  402a61:	00 
  402a62:	b8 0a 00 00 00       	mov    $0xa,%eax
  402a67:	29 d0                	sub    %edx,%eax
  402a69:	75 0a                	jne    402a75 <submitr+0x5bf>
  402a6b:	0f b6 84 24 42 20 00 	movzbl 0x2042(%rsp),%eax
  402a72:	00 
  402a73:	f7 d8                	neg    %eax
  402a75:	85 c0                	test   %eax,%eax
  402a77:	0f 85 37 ff ff ff    	jne    4029b4 <submitr+0x4fe>
  402a7d:	ba 00 20 00 00       	mov    $0x2000,%edx
  402a82:	48 8d b4 24 40 20 00 	lea    0x2040(%rsp),%rsi
  402a89:	00 
  402a8a:	48 8d 7c 24 30       	lea    0x30(%rsp),%rdi
  402a8f:	e8 6b f8 ff ff       	callq  4022ff <rio_readlineb>
  402a94:	48 85 c0             	test   %rax,%rax
  402a97:	0f 8f 83 00 00 00    	jg     402b20 <submitr+0x66a>
  402a9d:	48 b8 45 72 72 6f 72 	movabs $0x43203a726f727245,%rax
  402aa4:	3a 20 43 
  402aa7:	48 89 03             	mov    %rax,(%rbx)
  402aaa:	48 b8 6c 69 65 6e 74 	movabs $0x6e7520746e65696c,%rax
  402ab1:	20 75 6e 
  402ab4:	48 89 43 08          	mov    %rax,0x8(%rbx)
  402ab8:	48 b8 61 62 6c 65 20 	movabs $0x206f7420656c6261,%rax
  402abf:	74 6f 20 
  402ac2:	48 89 43 10          	mov    %rax,0x10(%rbx)
  402ac6:	48 b8 72 65 61 64 20 	movabs $0x6174732064616572,%rax
  402acd:	73 74 61 
  402ad0:	48 89 43 18          	mov    %rax,0x18(%rbx)
  402ad4:	48 b8 74 75 73 20 6d 	movabs $0x7373656d20737574,%rax
  402adb:	65 73 73 
  402ade:	48 89 43 20          	mov    %rax,0x20(%rbx)
  402ae2:	48 b8 61 67 65 20 66 	movabs $0x6d6f726620656761,%rax
  402ae9:	72 6f 6d 
  402aec:	48 89 43 28          	mov    %rax,0x28(%rbx)
  402af0:	48 b8 20 72 65 73 75 	movabs $0x20746c7573657220,%rax
  402af7:	6c 74 20 
  402afa:	48 89 43 30          	mov    %rax,0x30(%rbx)
  402afe:	c7 43 38 73 65 72 76 	movl   $0x76726573,0x38(%rbx)
  402b05:	66 c7 43 3c 65 72    	movw   $0x7265,0x3c(%rbx)
  402b0b:	c6 43 3e 00          	movb   $0x0,0x3e(%rbx)
  402b0f:	89 ef                	mov    %ebp,%edi
  402b11:	e8 1a e2 ff ff       	callq  400d30 <close@plt>
  402b16:	b8 ff ff ff ff       	mov    $0xffffffff,%eax
  402b1b:	e9 dc 00 00 00       	jmpq   402bfc <submitr+0x746>
  402b20:	44 8b 44 24 1c       	mov    0x1c(%rsp),%r8d
  402b25:	41 81 f8 c8 00 00 00 	cmp    $0xc8,%r8d
  402b2c:	74 37                	je     402b65 <submitr+0x6af>
  402b2e:	4c 8d 8c 24 40 80 00 	lea    0x8040(%rsp),%r9
  402b35:	00 
  402b36:	b9 68 37 40 00       	mov    $0x403768,%ecx
  402b3b:	48 c7 c2 ff ff ff ff 	mov    $0xffffffffffffffff,%rdx
  402b42:	be 01 00 00 00       	mov    $0x1,%esi
  402b47:	48 89 df             	mov    %rbx,%rdi
  402b4a:	b8 00 00 00 00       	mov    $0x0,%eax
  402b4f:	e8 2c e3 ff ff       	callq  400e80 <__sprintf_chk@plt>
  402b54:	89 ef                	mov    %ebp,%edi
  402b56:	e8 d5 e1 ff ff       	callq  400d30 <close@plt>
  402b5b:	b8 ff ff ff ff       	mov    $0xffffffff,%eax
  402b60:	e9 97 00 00 00       	jmpq   402bfc <submitr+0x746>
  402b65:	48 8d b4 24 40 20 00 	lea    0x2040(%rsp),%rsi
  402b6c:	00 
  402b6d:	48 89 df             	mov    %rbx,%rdi
  402b70:	e8 4b e1 ff ff       	callq  400cc0 <strcpy@plt>
  402b75:	89 ef                	mov    %ebp,%edi
  402b77:	e8 b4 e1 ff ff       	callq  400d30 <close@plt>
  402b7c:	0f b6 03             	movzbl (%rbx),%eax
  402b7f:	ba 4f 00 00 00       	mov    $0x4f,%edx
  402b84:	29 c2                	sub    %eax,%edx
  402b86:	75 22                	jne    402baa <submitr+0x6f4>
  402b88:	0f b6 4b 01          	movzbl 0x1(%rbx),%ecx
  402b8c:	b8 4b 00 00 00       	mov    $0x4b,%eax
  402b91:	29 c8                	sub    %ecx,%eax
  402b93:	75 17                	jne    402bac <submitr+0x6f6>
  402b95:	0f b6 4b 02          	movzbl 0x2(%rbx),%ecx
  402b99:	b8 0a 00 00 00       	mov    $0xa,%eax
  402b9e:	29 c8                	sub    %ecx,%eax
  402ba0:	75 0a                	jne    402bac <submitr+0x6f6>
  402ba2:	0f b6 43 03          	movzbl 0x3(%rbx),%eax
  402ba6:	f7 d8                	neg    %eax
  402ba8:	eb 02                	jmp    402bac <submitr+0x6f6>
  402baa:	89 d0                	mov    %edx,%eax
  402bac:	85 c0                	test   %eax,%eax
  402bae:	74 40                	je     402bf0 <submitr+0x73a>
  402bb0:	bf b0 37 40 00       	mov    $0x4037b0,%edi
  402bb5:	b9 05 00 00 00       	mov    $0x5,%ecx
  402bba:	48 89 de             	mov    %rbx,%rsi
  402bbd:	f3 a6                	repz cmpsb %es:(%rdi),%ds:(%rsi)
  402bbf:	0f 97 c0             	seta   %al
  402bc2:	0f 92 c1             	setb   %cl
  402bc5:	29 c8                	sub    %ecx,%eax
  402bc7:	0f be c0             	movsbl %al,%eax
  402bca:	85 c0                	test   %eax,%eax
  402bcc:	74 2e                	je     402bfc <submitr+0x746>
  402bce:	85 d2                	test   %edx,%edx
  402bd0:	75 13                	jne    402be5 <submitr+0x72f>
  402bd2:	0f b6 43 01          	movzbl 0x1(%rbx),%eax
  402bd6:	ba 4b 00 00 00       	mov    $0x4b,%edx
  402bdb:	29 c2                	sub    %eax,%edx
  402bdd:	75 06                	jne    402be5 <submitr+0x72f>
  402bdf:	0f b6 53 02          	movzbl 0x2(%rbx),%edx
  402be3:	f7 da                	neg    %edx
  402be5:	85 d2                	test   %edx,%edx
  402be7:	75 0e                	jne    402bf7 <submitr+0x741>
  402be9:	b8 00 00 00 00       	mov    $0x0,%eax
  402bee:	eb 0c                	jmp    402bfc <submitr+0x746>
  402bf0:	b8 00 00 00 00       	mov    $0x0,%eax
  402bf5:	eb 05                	jmp    402bfc <submitr+0x746>
  402bf7:	b8 ff ff ff ff       	mov    $0xffffffff,%eax
  402bfc:	48 8b 9c 24 48 a0 00 	mov    0xa048(%rsp),%rbx
  402c03:	00 
  402c04:	64 48 33 1c 25 28 00 	xor    %fs:0x28,%rbx
  402c0b:	00 00 
  402c0d:	74 05                	je     402c14 <submitr+0x75e>
  402c0f:	e8 dc e0 ff ff       	callq  400cf0 <__stack_chk_fail@plt>
  402c14:	48 81 c4 58 a0 00 00 	add    $0xa058,%rsp
  402c1b:	5b                   	pop    %rbx
  402c1c:	5d                   	pop    %rbp
  402c1d:	41 5c                	pop    %r12
  402c1f:	41 5d                	pop    %r13
  402c21:	41 5e                	pop    %r14
  402c23:	41 5f                	pop    %r15
  402c25:	c3                   	retq   

0000000000402c26 <init_timeout>:
  402c26:	85 ff                	test   %edi,%edi
  402c28:	74 23                	je     402c4d <init_timeout+0x27>
  402c2a:	53                   	push   %rbx
  402c2b:	89 fb                	mov    %edi,%ebx
  402c2d:	85 ff                	test   %edi,%edi
  402c2f:	79 05                	jns    402c36 <init_timeout+0x10>
  402c31:	bb 00 00 00 00       	mov    $0x0,%ebx
  402c36:	be ea 21 40 00       	mov    $0x4021ea,%esi
  402c3b:	bf 0e 00 00 00       	mov    $0xe,%edi
  402c40:	e8 1b e1 ff ff       	callq  400d60 <signal@plt>
  402c45:	89 df                	mov    %ebx,%edi
  402c47:	e8 d4 e0 ff ff       	callq  400d20 <alarm@plt>
  402c4c:	5b                   	pop    %rbx
  402c4d:	f3 c3                	repz retq 

0000000000402c4f <init_driver>:
  402c4f:	55                   	push   %rbp
  402c50:	53                   	push   %rbx
  402c51:	48 83 ec 28          	sub    $0x28,%rsp
  402c55:	48 89 fd             	mov    %rdi,%rbp
  402c58:	64 48 8b 04 25 28 00 	mov    %fs:0x28,%rax
  402c5f:	00 00 
  402c61:	48 89 44 24 18       	mov    %rax,0x18(%rsp)
  402c66:	31 c0                	xor    %eax,%eax
  402c68:	be 01 00 00 00       	mov    $0x1,%esi
  402c6d:	bf 0d 00 00 00       	mov    $0xd,%edi
  402c72:	e8 e9 e0 ff ff       	callq  400d60 <signal@plt>
  402c77:	be 01 00 00 00       	mov    $0x1,%esi
  402c7c:	bf 1d 00 00 00       	mov    $0x1d,%edi
  402c81:	e8 da e0 ff ff       	callq  400d60 <signal@plt>
  402c86:	be 01 00 00 00       	mov    $0x1,%esi
  402c8b:	bf 1d 00 00 00       	mov    $0x1d,%edi
  402c90:	e8 cb e0 ff ff       	callq  400d60 <signal@plt>
  402c95:	ba 00 00 00 00       	mov    $0x0,%edx
  402c9a:	be 01 00 00 00       	mov    $0x1,%esi
  402c9f:	bf 02 00 00 00       	mov    $0x2,%edi
  402ca4:	e8 e7 e1 ff ff       	callq  400e90 <socket@plt>
  402ca9:	85 c0                	test   %eax,%eax
  402cab:	79 4f                	jns    402cfc <init_driver+0xad>
  402cad:	48 b8 45 72 72 6f 72 	movabs $0x43203a726f727245,%rax
  402cb4:	3a 20 43 
  402cb7:	48 89 45 00          	mov    %rax,0x0(%rbp)
  402cbb:	48 b8 6c 69 65 6e 74 	movabs $0x6e7520746e65696c,%rax
  402cc2:	20 75 6e 
  402cc5:	48 89 45 08          	mov    %rax,0x8(%rbp)
  402cc9:	48 b8 61 62 6c 65 20 	movabs $0x206f7420656c6261,%rax
  402cd0:	74 6f 20 
  402cd3:	48 89 45 10          	mov    %rax,0x10(%rbp)
  402cd7:	48 b8 63 72 65 61 74 	movabs $0x7320657461657263,%rax
  402cde:	65 20 73 
  402ce1:	48 89 45 18          	mov    %rax,0x18(%rbp)
  402ce5:	c7 45 20 6f 63 6b 65 	movl   $0x656b636f,0x20(%rbp)
  402cec:	66 c7 45 24 74 00    	movw   $0x74,0x24(%rbp)
  402cf2:	b8 ff ff ff ff       	mov    $0xffffffff,%eax
  402cf7:	e9 2a 01 00 00       	jmpq   402e26 <init_driver+0x1d7>
  402cfc:	89 c3                	mov    %eax,%ebx
  402cfe:	bf b5 37 40 00       	mov    $0x4037b5,%edi
  402d03:	e8 68 e0 ff ff       	callq  400d70 <gethostbyname@plt>
  402d08:	48 85 c0             	test   %rax,%rax
  402d0b:	75 68                	jne    402d75 <init_driver+0x126>
  402d0d:	48 b8 45 72 72 6f 72 	movabs $0x44203a726f727245,%rax
  402d14:	3a 20 44 
  402d17:	48 89 45 00          	mov    %rax,0x0(%rbp)
  402d1b:	48 b8 4e 53 20 69 73 	movabs $0x6e7520736920534e,%rax
  402d22:	20 75 6e 
  402d25:	48 89 45 08          	mov    %rax,0x8(%rbp)
  402d29:	48 b8 61 62 6c 65 20 	movabs $0x206f7420656c6261,%rax
  402d30:	74 6f 20 
  402d33:	48 89 45 10          	mov    %rax,0x10(%rbp)
  402d37:	48 b8 72 65 73 6f 6c 	movabs $0x2065766c6f736572,%rax
  402d3e:	76 65 20 
  402d41:	48 89 45 18          	mov    %rax,0x18(%rbp)
  402d45:	48 b8 73 65 72 76 65 	movabs $0x6120726576726573,%rax
  402d4c:	72 20 61 
  402d4f:	48 89 45 20          	mov    %rax,0x20(%rbp)
  402d53:	c7 45 28 64 64 72 65 	movl   $0x65726464,0x28(%rbp)
  402d5a:	66 c7 45 2c 73 73    	movw   $0x7373,0x2c(%rbp)
  402d60:	c6 45 2e 00          	movb   $0x0,0x2e(%rbp)
  402d64:	89 df                	mov    %ebx,%edi
  402d66:	e8 c5 df ff ff       	callq  400d30 <close@plt>
  402d6b:	b8 ff ff ff ff       	mov    $0xffffffff,%eax
  402d70:	e9 b1 00 00 00       	jmpq   402e26 <init_driver+0x1d7>
  402d75:	48 c7 04 24 00 00 00 	movq   $0x0,(%rsp)
  402d7c:	00 
  402d7d:	48 c7 44 24 08 00 00 	movq   $0x0,0x8(%rsp)
  402d84:	00 00 
  402d86:	66 c7 04 24 02 00    	movw   $0x2,(%rsp)
  402d8c:	48 63 50 14          	movslq 0x14(%rax),%rdx
  402d90:	48 8b 40 18          	mov    0x18(%rax),%rax
  402d94:	48 8b 30             	mov    (%rax),%rsi
  402d97:	48 8d 7c 24 04       	lea    0x4(%rsp),%rdi
  402d9c:	b9 0c 00 00 00       	mov    $0xc,%ecx
  402da1:	e8 da df ff ff       	callq  400d80 <__memmove_chk@plt>
  402da6:	66 c7 44 24 02 3c 9a 	movw   $0x9a3c,0x2(%rsp)
  402dad:	ba 10 00 00 00       	mov    $0x10,%edx
  402db2:	48 89 e6             	mov    %rsp,%rsi
  402db5:	89 df                	mov    %ebx,%edi
  402db7:	e8 a4 e0 ff ff       	callq  400e60 <connect@plt>
  402dbc:	85 c0                	test   %eax,%eax
  402dbe:	79 50                	jns    402e10 <init_driver+0x1c1>
  402dc0:	48 b8 45 72 72 6f 72 	movabs $0x55203a726f727245,%rax
  402dc7:	3a 20 55 
  402dca:	48 89 45 00          	mov    %rax,0x0(%rbp)
  402dce:	48 b8 6e 61 62 6c 65 	movabs $0x6f7420656c62616e,%rax
  402dd5:	20 74 6f 
  402dd8:	48 89 45 08          	mov    %rax,0x8(%rbp)
  402ddc:	48 b8 20 63 6f 6e 6e 	movabs $0x7463656e6e6f6320,%rax
  402de3:	65 63 74 
  402de6:	48 89 45 10          	mov    %rax,0x10(%rbp)
  402dea:	48 b8 20 74 6f 20 73 	movabs $0x76726573206f7420,%rax
  402df1:	65 72 76 
  402df4:	48 89 45 18          	mov    %rax,0x18(%rbp)
  402df8:	66 c7 45 20 65 72    	movw   $0x7265,0x20(%rbp)
  402dfe:	c6 45 22 00          	movb   $0x0,0x22(%rbp)
  402e02:	89 df                	mov    %ebx,%edi
  402e04:	e8 27 df ff ff       	callq  400d30 <close@plt>
  402e09:	b8 ff ff ff ff       	mov    $0xffffffff,%eax
  402e0e:	eb 16                	jmp    402e26 <init_driver+0x1d7>
  402e10:	89 df                	mov    %ebx,%edi
  402e12:	e8 19 df ff ff       	callq  400d30 <close@plt>
  402e17:	66 c7 45 00 4f 4b    	movw   $0x4b4f,0x0(%rbp)
  402e1d:	c6 45 02 00          	movb   $0x0,0x2(%rbp)
  402e21:	b8 00 00 00 00       	mov    $0x0,%eax
  402e26:	48 8b 4c 24 18       	mov    0x18(%rsp),%rcx
  402e2b:	64 48 33 0c 25 28 00 	xor    %fs:0x28,%rcx
  402e32:	00 00 
  402e34:	74 05                	je     402e3b <init_driver+0x1ec>
  402e36:	e8 b5 de ff ff       	callq  400cf0 <__stack_chk_fail@plt>
  402e3b:	48 83 c4 28          	add    $0x28,%rsp
  402e3f:	5b                   	pop    %rbx
  402e40:	5d                   	pop    %rbp
  402e41:	c3                   	retq   

0000000000402e42 <driver_post>:
  402e42:	53                   	push   %rbx
  402e43:	4c 89 cb             	mov    %r9,%rbx
  402e46:	45 85 c0             	test   %r8d,%r8d
  402e49:	74 27                	je     402e72 <driver_post+0x30>
  402e4b:	48 89 ca             	mov    %rcx,%rdx
  402e4e:	be cc 37 40 00       	mov    $0x4037cc,%esi
  402e53:	bf 01 00 00 00       	mov    $0x1,%edi
  402e58:	b8 00 00 00 00       	mov    $0x0,%eax
  402e5d:	e8 9e df ff ff       	callq  400e00 <__printf_chk@plt>
  402e62:	66 c7 03 4f 4b       	movw   $0x4b4f,(%rbx)
  402e67:	c6 43 02 00          	movb   $0x0,0x2(%rbx)
  402e6b:	b8 00 00 00 00       	mov    $0x0,%eax
  402e70:	eb 3f                	jmp    402eb1 <driver_post+0x6f>
  402e72:	48 85 ff             	test   %rdi,%rdi
  402e75:	74 2c                	je     402ea3 <driver_post+0x61>
  402e77:	80 3f 00             	cmpb   $0x0,(%rdi)
  402e7a:	74 27                	je     402ea3 <driver_post+0x61>
  402e7c:	48 83 ec 08          	sub    $0x8,%rsp
  402e80:	41 51                	push   %r9
  402e82:	49 89 c9             	mov    %rcx,%r9
  402e85:	49 89 d0             	mov    %rdx,%r8
  402e88:	48 89 f9             	mov    %rdi,%rcx
  402e8b:	48 89 f2             	mov    %rsi,%rdx
  402e8e:	be 9a 3c 00 00       	mov    $0x3c9a,%esi
  402e93:	bf b5 37 40 00       	mov    $0x4037b5,%edi
  402e98:	e8 19 f6 ff ff       	callq  4024b6 <submitr>
  402e9d:	48 83 c4 10          	add    $0x10,%rsp
  402ea1:	eb 0e                	jmp    402eb1 <driver_post+0x6f>
  402ea3:	66 c7 03 4f 4b       	movw   $0x4b4f,(%rbx)
  402ea8:	c6 43 02 00          	movb   $0x0,0x2(%rbx)
  402eac:	b8 00 00 00 00       	mov    $0x0,%eax
  402eb1:	5b                   	pop    %rbx
  402eb2:	c3                   	retq   

0000000000402eb3 <check>:
  402eb3:	89 f8                	mov    %edi,%eax
  402eb5:	c1 e8 1c             	shr    $0x1c,%eax
  402eb8:	85 c0                	test   %eax,%eax
  402eba:	74 1d                	je     402ed9 <check+0x26>
  402ebc:	b9 00 00 00 00       	mov    $0x0,%ecx
  402ec1:	eb 0b                	jmp    402ece <check+0x1b>
  402ec3:	89 f8                	mov    %edi,%eax
  402ec5:	d3 e8                	shr    %cl,%eax
  402ec7:	3c 0a                	cmp    $0xa,%al
  402ec9:	74 14                	je     402edf <check+0x2c>
  402ecb:	83 c1 08             	add    $0x8,%ecx
  402ece:	83 f9 1f             	cmp    $0x1f,%ecx
  402ed1:	7e f0                	jle    402ec3 <check+0x10>
  402ed3:	b8 01 00 00 00       	mov    $0x1,%eax
  402ed8:	c3                   	retq   
  402ed9:	b8 00 00 00 00       	mov    $0x0,%eax
  402ede:	c3                   	retq   
  402edf:	b8 00 00 00 00       	mov    $0x0,%eax
  402ee4:	c3                   	retq   

0000000000402ee5 <gencookie>:
  402ee5:	53                   	push   %rbx
  402ee6:	83 c7 01             	add    $0x1,%edi
  402ee9:	e8 b2 dd ff ff       	callq  400ca0 <srandom@plt>
  402eee:	e8 cd de ff ff       	callq  400dc0 <random@plt>
  402ef3:	89 c3                	mov    %eax,%ebx
  402ef5:	89 c7                	mov    %eax,%edi
  402ef7:	e8 b7 ff ff ff       	callq  402eb3 <check>
  402efc:	85 c0                	test   %eax,%eax
  402efe:	74 ee                	je     402eee <gencookie+0x9>
  402f00:	89 d8                	mov    %ebx,%eax
  402f02:	5b                   	pop    %rbx
  402f03:	c3                   	retq   
  402f04:	66 2e 0f 1f 84 00 00 	nopw   %cs:0x0(%rax,%rax,1)
  402f0b:	00 00 00 
  402f0e:	66 90                	xchg   %ax,%ax

0000000000402f10 <__libc_csu_init>:
  402f10:	41 57                	push   %r15
  402f12:	41 56                	push   %r14
  402f14:	41 89 ff             	mov    %edi,%r15d
  402f17:	41 55                	push   %r13
  402f19:	41 54                	push   %r12
  402f1b:	4c 8d 25 ee 1e 20 00 	lea    0x201eee(%rip),%r12        # 604e10 <__frame_dummy_init_array_entry>
  402f22:	55                   	push   %rbp
  402f23:	48 8d 2d ee 1e 20 00 	lea    0x201eee(%rip),%rbp        # 604e18 <__init_array_end>
  402f2a:	53                   	push   %rbx
  402f2b:	49 89 f6             	mov    %rsi,%r14
  402f2e:	49 89 d5             	mov    %rdx,%r13
  402f31:	4c 29 e5             	sub    %r12,%rbp
  402f34:	48 83 ec 08          	sub    $0x8,%rsp
  402f38:	48 c1 fd 03          	sar    $0x3,%rbp
  402f3c:	e8 07 dd ff ff       	callq  400c48 <_init>
  402f41:	48 85 ed             	test   %rbp,%rbp
  402f44:	74 20                	je     402f66 <__libc_csu_init+0x56>
  402f46:	31 db                	xor    %ebx,%ebx
  402f48:	0f 1f 84 00 00 00 00 	nopl   0x0(%rax,%rax,1)
  402f4f:	00 
  402f50:	4c 89 ea             	mov    %r13,%rdx
  402f53:	4c 89 f6             	mov    %r14,%rsi
  402f56:	44 89 ff             	mov    %r15d,%edi
  402f59:	41 ff 14 dc          	callq  *(%r12,%rbx,8)
  402f5d:	48 83 c3 01          	add    $0x1,%rbx
  402f61:	48 39 eb             	cmp    %rbp,%rbx
  402f64:	75 ea                	jne    402f50 <__libc_csu_init+0x40>
  402f66:	48 83 c4 08          	add    $0x8,%rsp
  402f6a:	5b                   	pop    %rbx
  402f6b:	5d                   	pop    %rbp
  402f6c:	41 5c                	pop    %r12
  402f6e:	41 5d                	pop    %r13
  402f70:	41 5e                	pop    %r14
  402f72:	41 5f                	pop    %r15
  402f74:	c3                   	retq   
  402f75:	90                   	nop
  402f76:	66 2e 0f 1f 84 00 00 	nopw   %cs:0x0(%rax,%rax,1)
  402f7d:	00 00 00 

0000000000402f80 <__libc_csu_fini>:
  402f80:	f3 c3                	repz retq 

Disassembly of section .fini:

0000000000402f84 <_fini>:
  402f84:	48 83 ec 08          	sub    $0x8,%rsp
  402f88:	48 83 c4 08          	add    $0x8,%rsp
  402f8c:	c3                   	retq   
